libGreenIslandPlatform.so.0 libgreenisland-platform0 #MINVER#
 _ZN11GreenIsland8Platform10EGLPbufferC1EPvRK14QSurfaceFormatP17QOffscreenSurface6QFlagsINS0_18EGLPlatformContext4FlagEE@Base 0.7.90
 _ZN11GreenIsland8Platform10EGLPbufferC2EPvRK14QSurfaceFormatP17QOffscreenSurface6QFlagsINS0_18EGLPlatformContext4FlagEE@Base 0.7.90
 _ZN11GreenIsland8Platform10EGLPbufferD0Ev@Base 0.7.90
 _ZN11GreenIsland8Platform10EGLPbufferD1Ev@Base 0.7.90
 _ZN11GreenIsland8Platform10EGLPbufferD2Ev@Base 0.7.90
 _ZN11GreenIsland8Platform10UdevDeviceC1EP11udev_device@Base 0.7.90
 _ZN11GreenIsland8Platform10UdevDeviceC2EP11udev_device@Base 0.7.90
 _ZN11GreenIsland8Platform10UdevDeviceD1Ev@Base 0.7.90
 _ZN11GreenIsland8Platform10UdevDeviceD2Ev@Base 0.7.90
 _ZN11GreenIsland8Platform11EglFSCursor11qt_metacallEN11QMetaObject4CallEiPPv@Base 0.7.90
 _ZN11GreenIsland8Platform11EglFSCursor11qt_metacastEPKc@Base 0.7.90
 _ZN11GreenIsland8Platform11EglFSCursor12changeCursorEP7QCursorP7QWindow@Base 0.7.90
 _ZN11GreenIsland8Platform11EglFSCursor12pointerEventERK11QMouseEvent@Base 0.7.90
 _ZN11GreenIsland8Platform11EglFSCursor13paintOnScreenEv@Base 0.7.90
 _ZN11GreenIsland8Platform11EglFSCursor14resetResourcesEv@Base 0.7.90
 _ZN11GreenIsland8Platform11EglFSCursor15initCursorAtlasEv@Base 0.7.90
 _ZN11GreenIsland8Platform11EglFSCursor16setCurrentCursorEP7QCursor@Base 0.7.90
 _ZN11GreenIsland8Platform11EglFSCursor16staticMetaObjectE@Base 0.7.90
 _ZN11GreenIsland8Platform11EglFSCursor17updateMouseStatusEv@Base 0.7.90
 _ZN11GreenIsland8Platform11EglFSCursor19createCursorTextureEPjRK6QImage@Base 0.7.90
 _ZN11GreenIsland8Platform11EglFSCursor20createShaderProgramsEv@Base 0.7.90
 _ZN11GreenIsland8Platform11EglFSCursor4drawERK6QRectF@Base 0.7.90
 _ZN11GreenIsland8Platform11EglFSCursor5eventEP6QEvent@Base 0.7.90
 _ZN11GreenIsland8Platform11EglFSCursor6setPosERK6QPoint@Base 0.7.90
 _ZN11GreenIsland8Platform11EglFSCursor6updateERK7QRegion@Base 0.7.90
 _ZN11GreenIsland8Platform11EglFSCursorC1EP15QPlatformScreen@Base 0.7.90
 _ZN11GreenIsland8Platform11EglFSCursorC2EP15QPlatformScreen@Base 0.7.90
 _ZN11GreenIsland8Platform11EglFSCursorD0Ev@Base 0.7.90
 _ZN11GreenIsland8Platform11EglFSCursorD1Ev@Base 0.7.90
 _ZN11GreenIsland8Platform11EglFSCursorD2Ev@Base 0.7.90
 _ZN11GreenIsland8Platform11EglFSScreen13setPowerStateENS1_10PowerStateE@Base 0.7.90
 _ZN11GreenIsland8Platform11EglFSScreen16handleCursorMoveERK6QPoint@Base 0.7.90
 _ZN11GreenIsland8Platform11EglFSScreen17setPrimarySurfaceEPv@Base 0.7.90
 _ZN11GreenIsland8Platform11EglFSScreenC1EPv@Base 0.7.90
 _ZN11GreenIsland8Platform11EglFSScreenC2EPv@Base 0.7.90
 _ZN11GreenIsland8Platform11EglFSScreenD0Ev@Base 0.7.90
 _ZN11GreenIsland8Platform11EglFSScreenD1Ev@Base 0.7.90
 _ZN11GreenIsland8Platform11EglFSScreenD2Ev@Base 0.7.90
 _ZN11GreenIsland8Platform11EglFSWindow10setOpacityEd@Base 0.7.90
 _ZN11GreenIsland8Platform11EglFSWindow10setVisibleEb@Base 0.7.90
 _ZN11GreenIsland8Platform11EglFSWindow11setGeometryERK5QRect@Base 0.7.90
 _ZN11GreenIsland8Platform11EglFSWindow12resetSurfaceEv@Base 0.7.90
 _ZN11GreenIsland8Platform11EglFSWindow14endCompositingEv@Base 0.7.90
 _ZN11GreenIsland8Platform11EglFSWindow17invalidateSurfaceEv@Base 0.7.90
 _ZN11GreenIsland8Platform11EglFSWindow21requestActivateWindowEv@Base 0.7.90
 _ZN11GreenIsland8Platform11EglFSWindow5lowerEv@Base 0.7.90
 _ZN11GreenIsland8Platform11EglFSWindow5raiseEv@Base 0.7.90
 _ZN11GreenIsland8Platform11EglFSWindow6createEv@Base 0.7.90
 _ZN11GreenIsland8Platform11EglFSWindow7destroyEv@Base 0.7.90
 _ZN11GreenIsland8Platform11EglFSWindowC1EP7QWindow@Base 0.7.90
 _ZN11GreenIsland8Platform11EglFSWindowC2EP7QWindow@Base 0.7.90
 _ZN11GreenIsland8Platform11EglFSWindowD0Ev@Base 0.7.90
 _ZN11GreenIsland8Platform11EglFSWindowD1Ev@Base 0.7.90
 _ZN11GreenIsland8Platform11EglFSWindowD2Ev@Base 0.7.90
 _ZN11GreenIsland8Platform11UdevMonitor22filterSubSystemDevTypeERK7QStringS4_@Base 0.7.90
 _ZN11GreenIsland8Platform11UdevMonitor9filterTagERK7QString@Base 0.7.90
 _ZN11GreenIsland8Platform11UdevMonitorC1EPNS0_4UdevEP7QObject@Base 0.7.90
 _ZN11GreenIsland8Platform11UdevMonitorC2EPNS0_4UdevEP7QObject@Base 0.7.90
 _ZN11GreenIsland8Platform12EglFSContext11swapBuffersEP16QPlatformSurface@Base 0.7.90
 _ZN11GreenIsland8Platform12EglFSContext28eglSurfaceForPlatformSurfaceEP16QPlatformSurface@Base 0.7.90
 _ZN11GreenIsland8Platform12EglFSContext31createTemporaryOffscreenSurfaceEv@Base 0.7.90
 _ZN11GreenIsland8Platform12EglFSContext32destroyTemporaryOffscreenSurfaceEPv@Base 0.7.90
 _ZN11GreenIsland8Platform12EglFSContextC1ERK14QSurfaceFormatP22QPlatformOpenGLContextPvPS7_RK8QVariant@Base 0.7.90
 _ZN11GreenIsland8Platform12EglFSContextC2ERK14QSurfaceFormatP22QPlatformOpenGLContextPvPS7_RK8QVariant@Base 0.7.90
 _ZN11GreenIsland8Platform13UdevEnumerateC1E6QFlagsINS0_10UdevDevice10DeviceTypeEEPNS0_4UdevE@Base 0.7.90
 _ZN11GreenIsland8Platform13UdevEnumerateC2E6QFlagsINS0_10UdevDevice10DeviceTypeEEPNS0_4UdevE@Base 0.7.90
 _ZN11GreenIsland8Platform13UdevEnumerateD1Ev@Base 0.7.90
 _ZN11GreenIsland8Platform13UdevEnumerateD2Ev@Base 0.7.90
 _ZN11GreenIsland8Platform15LibInputHandler10keyPressedERKNS0_16LibInputKeyEventE@Base 0.7.90
 _ZN11GreenIsland8Platform15LibInputHandler10mouseMovedERKNS0_18LibInputMouseEventE@Base 0.7.90
 _ZN11GreenIsland8Platform15LibInputHandler10mouseWheelERKNS0_18LibInputMouseEventE@Base 0.7.90
 _ZN11GreenIsland8Platform15LibInputHandler10touchEventERKNS0_18LibInputTouchEventE@Base 0.7.90
 _ZN11GreenIsland8Platform15LibInputHandler11keyReleasedERKNS0_16LibInputKeyEventE@Base 0.7.90
 _ZN11GreenIsland8Platform15LibInputHandler11qt_metacallEN11QMetaObject4CallEiPPv@Base 0.7.90
 _ZN11GreenIsland8Platform15LibInputHandler11qt_metacastEPKc@Base 0.7.90
 _ZN11GreenIsland8Platform15LibInputHandler11touchCancelERKNS0_18LibInputTouchEventE@Base 0.7.90
 _ZN11GreenIsland8Platform15LibInputHandler12mousePressedERKNS0_18LibInputMouseEventE@Base 0.7.90
 _ZN11GreenIsland8Platform15LibInputHandler13mouseReleasedERKNS0_18LibInputMouseEventE@Base 0.7.90
 _ZN11GreenIsland8Platform15LibInputHandler16staticMetaObjectE@Base 0.7.90
 _ZN11GreenIsland8Platform15LibInputHandler16suspendedChangedEb@Base 0.7.90
 _ZN11GreenIsland8Platform15LibInputHandler17touchCountChangedEi@Base 0.7.90
 _ZN11GreenIsland8Platform15LibInputHandler18setPointerPositionERK6QPoint@Base 0.7.90
 _ZN11GreenIsland8Platform15LibInputHandler19capabilitiesChangedEv@Base 0.7.90
 _ZN11GreenIsland8Platform15LibInputHandler19gestureCountChangedEi@Base 0.7.90
 _ZN11GreenIsland8Platform15LibInputHandler19pointerCountChangedEi@Base 0.7.90
 _ZN11GreenIsland8Platform15LibInputHandler20keyboardCountChangedEi@Base 0.7.90
 _ZN11GreenIsland8Platform15LibInputHandler21touchDeviceRegisteredEP12QTouchDevice@Base 0.7.90
 _ZN11GreenIsland8Platform15LibInputHandler23touchDeviceUnregisteredEP12QTouchDevice@Base 0.7.90
 _ZN11GreenIsland8Platform15LibInputHandler5readyEv@Base 0.7.90
 _ZN11GreenIsland8Platform15LibInputHandler6resumeEv@Base 0.7.90
 _ZN11GreenIsland8Platform15LibInputHandler7suspendEv@Base 0.7.90
 _ZN11GreenIsland8Platform15LibInputHandlerC1EP7QObject@Base 0.7.90
 _ZN11GreenIsland8Platform15LibInputHandlerC2EP7QObject@Base 0.7.90
 _ZN11GreenIsland8Platform16EglConfigChooser12chooseConfigEv@Base 0.7.90
 _ZN11GreenIsland8Platform16EglConfigChooserC1EPv@Base 0.7.90
 _ZN11GreenIsland8Platform16EglConfigChooserC2EPv@Base 0.7.90
 _ZN11GreenIsland8Platform16EglConfigChooserD0Ev@Base 0.7.90
 _ZN11GreenIsland8Platform16EglConfigChooserD1Ev@Base 0.7.90
 _ZN11GreenIsland8Platform16EglConfigChooserD2Ev@Base 0.7.90
 _ZN11GreenIsland8Platform16EglFSIntegration10initializeEv@Base 0.7.90
 _ZN11GreenIsland8Platform16EglFSIntegration12chooseConfigEPvRK14QSurfaceFormat@Base 0.7.90
 _ZN11GreenIsland8Platform16EglFSIntegration12removeScreenEP15QPlatformScreen@Base 0.7.90
 _ZN11GreenIsland8Platform16EglFSIntegration23nativeResourceForScreenERK10QByteArrayP7QScreen@Base 0.7.90
 _ZN11GreenIsland8Platform16EglFSIntegration23nativeResourceForWindowERK10QByteArrayP7QWindow@Base 0.7.90
 _ZN11GreenIsland8Platform16EglFSIntegration24nativeResourceForContextERK10QByteArrayP14QOpenGLContext@Base 0.7.90
 _ZN11GreenIsland8Platform16EglFSIntegration28nativeResourceForIntegrationERK10QByteArray@Base 0.7.90
 _ZN11GreenIsland8Platform16EglFSIntegration32nativeResourceFunctionForContextERK10QByteArray@Base 0.7.90
 _ZN11GreenIsland8Platform16EglFSIntegration7destroyEv@Base 0.7.90
 _ZN11GreenIsland8Platform16EglFSIntegration9addScreenEP15QPlatformScreen@Base 0.7.90
 _ZN11GreenIsland8Platform16EglFSIntegrationC1Ev@Base 0.7.90
 _ZN11GreenIsland8Platform16EglFSIntegrationC2Ev@Base 0.7.90
 _ZN11GreenIsland8Platform16OpenGLCompositor11qt_metacallEN11QMetaObject4CallEiPPv@Base 0.7.90
 _ZN11GreenIsland8Platform16OpenGLCompositor11qt_metacastEPKc@Base 0.7.90
 _ZN11GreenIsland8Platform16OpenGLCompositor12removeWindowEPNS0_22OpenGLCompositorWindowE@Base 0.7.90
 _ZN11GreenIsland8Platform16OpenGLCompositor16staticMetaObjectE@Base 0.7.90
 _ZN11GreenIsland8Platform16OpenGLCompositor16topWindowChangedEPNS0_22OpenGLCompositorWindowE@Base 0.7.90
 _ZN11GreenIsland8Platform16OpenGLCompositor17changeWindowIndexEPNS0_22OpenGLCompositorWindowEi@Base 0.7.90
 _ZN11GreenIsland8Platform16OpenGLCompositor22handleRenderAllRequestEv@Base 0.7.90
 _ZN11GreenIsland8Platform16OpenGLCompositor4grabEv@Base 0.7.90
 _ZN11GreenIsland8Platform16OpenGLCompositor6renderEPNS0_22OpenGLCompositorWindowE@Base 0.7.90
 _ZN11GreenIsland8Platform16OpenGLCompositor6updateEv@Base 0.7.90
 _ZN11GreenIsland8Platform16OpenGLCompositor7destroyEv@Base 0.7.90
 _ZN11GreenIsland8Platform16OpenGLCompositor8instanceEv@Base 0.7.90
 _ZN11GreenIsland8Platform16OpenGLCompositor9addWindowEPNS0_22OpenGLCompositorWindowE@Base 0.7.90
 _ZN11GreenIsland8Platform16OpenGLCompositor9moveToTopEPNS0_22OpenGLCompositorWindowE@Base 0.7.90
 _ZN11GreenIsland8Platform16OpenGLCompositor9renderAllEP24QOpenGLFramebufferObject@Base 0.7.90
 _ZN11GreenIsland8Platform16OpenGLCompositor9setTargetEP14QOpenGLContextP7QWindow@Base 0.7.90
 _ZN11GreenIsland8Platform16OpenGLCompositorC1Ev@Base 0.7.90
 _ZN11GreenIsland8Platform16OpenGLCompositorC2Ev@Base 0.7.90
 _ZN11GreenIsland8Platform16OpenGLCompositorD0Ev@Base 0.7.90
 _ZN11GreenIsland8Platform16OpenGLCompositorD1Ev@Base 0.7.90
 _ZN11GreenIsland8Platform16OpenGLCompositorD2Ev@Base 0.7.90
 _ZN11GreenIsland8Platform18EGLPlatformContext10initializeEv@Base 0.7.90
 _ZN11GreenIsland8Platform18EGLPlatformContext11doneCurrentEv@Base 0.7.90
 _ZN11GreenIsland8Platform18EGLPlatformContext11makeCurrentEP16QPlatformSurface@Base 0.7.90
 _ZN11GreenIsland8Platform18EGLPlatformContext11swapBuffersEP16QPlatformSurface@Base 0.7.90
 _ZN11GreenIsland8Platform18EGLPlatformContext14getProcAddressERK10QByteArray@Base 0.7.90
 _ZN11GreenIsland8Platform18EGLPlatformContext18updateFormatFromGLEv@Base 0.7.90
 _ZN11GreenIsland8Platform18EGLPlatformContext31createTemporaryOffscreenSurfaceEv@Base 0.7.90
 _ZN11GreenIsland8Platform18EGLPlatformContext32destroyTemporaryOffscreenSurfaceEPv@Base 0.7.90
 _ZN11GreenIsland8Platform18EGLPlatformContext4initERK14QSurfaceFormatP22QPlatformOpenGLContext@Base 0.7.90
 _ZN11GreenIsland8Platform18EGLPlatformContext5adoptERK8QVariantP22QPlatformOpenGLContext@Base 0.7.90
 _ZN11GreenIsland8Platform18EGLPlatformContextC1ERK14QSurfaceFormatP22QPlatformOpenGLContextPvPS7_RK8QVariant6QFlagsINS1_4FlagEE@Base 0.7.90
 _ZN11GreenIsland8Platform18EGLPlatformContextC2ERK14QSurfaceFormatP22QPlatformOpenGLContextPvPS7_RK8QVariant6QFlagsINS1_4FlagEE@Base 0.7.90
 _ZN11GreenIsland8Platform18EGLPlatformContextD0Ev@Base 0.7.90
 _ZN11GreenIsland8Platform18EGLPlatformContextD1Ev@Base 0.7.90
 _ZN11GreenIsland8Platform18EGLPlatformContextD2Ev@Base 0.7.90
 _ZN11GreenIsland8Platform20EGLDeviceIntegration10screenInitEv@Base 0.7.90
 _ZN11GreenIsland8Platform20EGLDeviceIntegration12handlesInputEv@Base 0.7.90
 _ZN11GreenIsland8Platform20EGLDeviceIntegration12platformInitEv@Base 0.7.90
 _ZN11GreenIsland8Platform20EGLDeviceIntegration13presentBufferEP16QPlatformSurface@Base 0.7.90
 _ZN11GreenIsland8Platform20EGLDeviceIntegration13screenDestroyEv@Base 0.7.90
 _ZN11GreenIsland8Platform20EGLDeviceIntegration13usesVtHandlerEv@Base 0.7.90
 _ZN11GreenIsland8Platform20EGLDeviceIntegration15platformDestroyEv@Base 0.7.90
 _ZN11GreenIsland8Platform20EGLDeviceIntegration17usesDefaultScreenEv@Base 0.7.90
 _ZN11GreenIsland8Platform20EGLDeviceIntegration18createNativeWindowEP15QPlatformWindowRK5QSizeRK14QSurfaceFormat@Base 0.7.90
 _ZN11GreenIsland8Platform20EGLDeviceIntegration19destroyNativeWindowEm@Base 0.7.90
 _ZN11GreenIsland8Platform20EGLDeviceIntegration20createPlatformWindowEP7QWindow@Base 0.7.90
 _ZN11GreenIsland8Platform20EGLDeviceIntegration26createPlatformBackingStoreEP7QWindow@Base 0.7.90
 _ZN11GreenIsland8Platform20EGLDeviceIntegration27createNativeOffscreenWindowERK14QSurfaceFormat@Base 0.7.90
 _ZN11GreenIsland8Platform20EGLDeviceIntegration27createPlatformOpenGLContextEP14QOpenGLContext@Base 0.7.90
 _ZN11GreenIsland8Platform20EGLDeviceIntegrationD0Ev@Base 0.7.90
 _ZN11GreenIsland8Platform20EGLDeviceIntegrationD1Ev@Base 0.7.90
 _ZN11GreenIsland8Platform20EGLDeviceIntegrationD2Ev@Base 0.7.90
 _ZN11GreenIsland8Platform20EGLStreamConvenience10initializeEPv@Base 0.7.90
 _ZN11GreenIsland8Platform20EGLStreamConvenienceC1Ev@Base 0.7.90
 _ZN11GreenIsland8Platform20EGLStreamConvenienceC2Ev@Base 0.7.90
 _ZN11GreenIsland8Platform20EglFSOffscreenWindowC1EPvRK14QSurfaceFormatP17QOffscreenSurface@Base 0.7.90
 _ZN11GreenIsland8Platform20EglFSOffscreenWindowC2EPvRK14QSurfaceFormatP17QOffscreenSurface@Base 0.7.90
 _ZN11GreenIsland8Platform20EglFSOffscreenWindowD0Ev@Base 0.7.90
 _ZN11GreenIsland8Platform20EglFSOffscreenWindowD1Ev@Base 0.7.90
 _ZN11GreenIsland8Platform20EglFSOffscreenWindowD2Ev@Base 0.7.90
 _ZN11GreenIsland8Platform22egl_device_integrationEv@Base 0.7.90
 _ZN11GreenIsland8Platform26EGLDeviceIntegrationPlugin11qt_metacallEN11QMetaObject4CallEiPPv@Base 0.7.90
 _ZN11GreenIsland8Platform26EGLDeviceIntegrationPlugin11qt_metacastEPKc@Base 0.7.90
 _ZN11GreenIsland8Platform26EGLDeviceIntegrationPlugin16staticMetaObjectE@Base 0.7.90
 _ZN11GreenIsland8Platform28OpenGLCompositorBackingStore10beginPaintERK7QRegion@Base 0.7.90
 _ZN11GreenIsland8Platform28OpenGLCompositorBackingStore11paintDeviceEv@Base 0.7.90
 _ZN11GreenIsland8Platform28OpenGLCompositorBackingStore13updateTextureEv@Base 0.7.90
 _ZN11GreenIsland8Platform28OpenGLCompositorBackingStore15composeAndFlushEP7QWindowRK7QRegionRK6QPointP20QPlatformTextureListP14QOpenGLContextb@Base 0.7.90
 _ZN11GreenIsland8Platform28OpenGLCompositorBackingStore16notifyCompositedEv@Base 0.7.90
 _ZN11GreenIsland8Platform28OpenGLCompositorBackingStore5flushEP7QWindowRK7QRegionRK6QPoint@Base 0.7.90
 _ZN11GreenIsland8Platform28OpenGLCompositorBackingStore6resizeERK5QSizeRK7QRegion@Base 0.7.90
 _ZN11GreenIsland8Platform28OpenGLCompositorBackingStoreC1EP7QWindow@Base 0.7.90
 _ZN11GreenIsland8Platform28OpenGLCompositorBackingStoreC2EP7QWindow@Base 0.7.90
 _ZN11GreenIsland8Platform28OpenGLCompositorBackingStoreD0Ev@Base 0.7.90
 _ZN11GreenIsland8Platform28OpenGLCompositorBackingStoreD1Ev@Base 0.7.90
 _ZN11GreenIsland8Platform28OpenGLCompositorBackingStoreD2Ev@Base 0.7.90
 _ZN11GreenIsland8Platform4UdevC1Ev@Base 0.7.90
 _ZN11GreenIsland8Platform4UdevC2Ev@Base 0.7.90
 _ZN11GreenIsland8Platform4UdevD1Ev@Base 0.7.90
 _ZN11GreenIsland8Platform4UdevD2Ev@Base 0.7.90
 _ZN11GreenIsland8Platform6Logind10takeDeviceERK7QString@Base 0.7.90
 _ZN11GreenIsland8Platform6Logind11lockSessionEv@Base 0.7.90
 _ZN11GreenIsland8Platform6Logind11qt_metacallEN11QMetaObject4CallEiPPv@Base 0.7.90
 _ZN11GreenIsland8Platform6Logind11qt_metacastEPKc@Base 0.7.90
 _ZN11GreenIsland8Platform6Logind11takeControlEv@Base 0.7.90
 _ZN11GreenIsland8Platform6Logind11uninhibitedEi@Base 0.7.90
 _ZN11GreenIsland8Platform6Logind13releaseDeviceEi@Base 0.7.90
 _ZN11GreenIsland8Platform6Logind13unlockSessionEv@Base 0.7.90
 _ZN11GreenIsland8Platform6Logind14releaseControlEv@Base 0.7.90
 _ZN11GreenIsland8Platform6Logind15prepareForSleepEb@Base 0.7.90
 _ZN11GreenIsland8Platform6Logind15vtNumberChangedEi@Base 0.7.90
 _ZN11GreenIsland8Platform6Logind16connectedChangedEb@Base 0.7.90
 _ZN11GreenIsland8Platform6Logind16inhibitedChangedEb@Base 0.7.90
 _ZN11GreenIsland8Platform6Logind16staticMetaObjectE@Base 0.7.90
 _ZN11GreenIsland8Platform6Logind18prepareForShutdownEb@Base 0.7.90
 _ZN11GreenIsland8Platform6Logind20lockSessionRequestedEv@Base 0.7.90
 _ZN11GreenIsland8Platform6Logind20sessionActiveChangedEb@Base 0.7.90
 _ZN11GreenIsland8Platform6Logind22unlockSessionRequestedEv@Base 0.7.90
 _ZN11GreenIsland8Platform6Logind24hasSessionControlChangedEb@Base 0.7.90
 _ZN11GreenIsland8Platform6Logind7inhibitERK7QStringS4_6QFlagsINS1_11InhibitFlagEENS1_11InhibitModeE@Base 0.7.90
 _ZN11GreenIsland8Platform6Logind8instanceEv@Base 0.7.90
 _ZN11GreenIsland8Platform6Logind8switchToEj@Base 0.7.90
 _ZN11GreenIsland8Platform6Logind9inhibitedEi@Base 0.7.90
 _ZN11GreenIsland8Platform6Logind9uninhibitEi@Base 0.7.90
 _ZN11GreenIsland8Platform6LogindC1ERK15QDBusConnectionP7QObject@Base 0.7.90
 _ZN11GreenIsland8Platform6LogindC2ERK15QDBusConnectionP7QObject@Base 0.7.90
 _ZN11GreenIsland8Platform8EglFSXkb13keysymToQtKeyEj@Base 0.7.90
 _ZN11GreenIsland8Platform8EglFSXkb13keysymToQtKeyEjR6QFlagsIN2Qt16KeyboardModifierEERK7QString@Base 0.7.90
 _ZN11GreenIsland8Platform8EglFSXkb9modifiersEP9xkb_state@Base 0.7.90
 _ZN11GreenIsland8Platform8EglUtils14printEglConfigEPvS2_@Base 0.7.90
 _ZN11GreenIsland8Platform8EglUtils15hasEglExtensionEPvPKc@Base 0.7.90
 _ZN11GreenIsland8Platform8EglUtils16screenSizeFromFbEi@Base 0.7.90
 _ZN11GreenIsland8Platform8EglUtils17refreshRateFromFbEi@Base 0.7.90
 _ZN11GreenIsland8Platform8EglUtils17screenDepthFromFbEi@Base 0.7.90
 _ZN11GreenIsland8Platform8EglUtils18configFromGLFormatEPvRK14QSurfaceFormatbi@Base 0.7.90
 _ZN11GreenIsland8Platform8EglUtils18glFormatFromConfigEPvS2_RK14QSurfaceFormat@Base 0.7.90
 _ZN11GreenIsland8Platform8EglUtils22reduceConfigAttributesEP7QVectorIiE@Base 0.7.90
 _ZN11GreenIsland8Platform8EglUtils24physicalScreenSizeFromFbEiRK5QSize@Base 0.7.90
 _ZN11GreenIsland8Platform8EglUtils32createConfigAttributesFromFormatERK14QSurfaceFormat@Base 0.7.90
 _ZN11GreenIsland8Platform9VtHandler11interruptedEv@Base 0.7.90
 _ZN11GreenIsland8Platform9VtHandler11qt_metacallEN11QMetaObject4CallEiPPv@Base 0.7.90
 _ZN11GreenIsland8Platform9VtHandler11qt_metacastEPKc@Base 0.7.90
 _ZN11GreenIsland8Platform9VtHandler13activeChangedEb@Base 0.7.90
 _ZN11GreenIsland8Platform9VtHandler14aboutToSuspendEv@Base 0.7.90
 _ZN11GreenIsland8Platform9VtHandler16staticMetaObjectE@Base 0.7.90
 _ZN11GreenIsland8Platform9VtHandler7createdEv@Base 0.7.90
 _ZN11GreenIsland8Platform9VtHandler7resumedEv@Base 0.7.90
 _ZN11GreenIsland8Platform9VtHandler7suspendEv@Base 0.7.90
 _ZN11GreenIsland8Platform9VtHandler8activateEj@Base 0.7.90
 _ZN11GreenIsland8Platform9VtHandlerC1EP7QObject@Base 0.7.90
 _ZN11GreenIsland8Platform9VtHandlerC2EP7QObject@Base 0.7.90
 _ZN13QFontEngineFT11boundingBoxERK12QGlyphLayout@Base 0.7.90
 _ZN13QFontEngineFT11boundingBoxEj@Base 0.7.90
 _ZN13QFontEngineFT11boundingBoxEjRK10QTransform@Base 0.7.90
 _ZN13QFontEngineFT12loadGlyphForEj6QFixedN11QFontEngine11GlyphFormatERK10QTransformb@Base 0.7.90
 _ZN13QFontEngineFT12loadGlyphSetERK10QTransform@Base 0.7.90
 _ZN13QFontEngineFT15addGlyphsToPathEPjP11QFixedPointiP12QPainterPath6QFlagsIN9QTextItem10RenderFlagEE@Base 0.7.90
 _ZN13QFontEngineFT16addOutlineToPathEddRK12QGlyphLayoutP12QPainterPath6QFlagsIN9QTextItem10RenderFlagEE@Base 0.7.90
 _ZN13QFontEngineFT16alphaMapForGlyphEj6QFixed@Base 0.7.90
 _ZN13QFontEngineFT16alphaMapForGlyphEj6QFixedRK10QTransform@Base 0.7.90
 _ZN13QFontEngineFT16getUnscaledGlyphEjP12QPainterPathP15glyph_metrics_t@Base 0.7.90
 _ZN13QFontEngineFT17getPointInOutlineEjijP6QFixedS1_Pj@Base 0.7.90
 _ZN13QFontEngineFT18initFromFontEngineEPKS_@Base 0.7.90
 _ZN13QFontEngineFT19alphaMapBoundingBoxEj6QFixedRK10QTransformN11QFontEngine11GlyphFormatE@Base 0.7.90
 _ZN13QFontEngineFT19alphaRGBMapForGlyphEj6QFixedRK10QTransform@Base 0.7.90
 _ZN13QFontEngineFT19setDefaultHintStyleEN11QFontEngine9HintStyleE@Base 0.7.90
 _ZN13QFontEngineFT20removeGlyphFromCacheEj@Base 0.7.90
 _ZN13QFontEngineFT22lockedAlphaMapForGlyphEj6QFixedN11QFontEngine11GlyphFormatERK10QTransformP6QPoint@Base 0.7.90
 _ZN13QFontEngineFT22unlockAlphaMapForGlyphEv@Base 0.7.90
 _ZN13QFontEngineFT4initEN11QFontEngine6FaceIdEbNS0_11GlyphFormatEP13QFreetypeFace@Base 0.7.90
 _ZN13QFontEngineFT4initEN11QFontEngine6FaceIdEbNS0_11GlyphFormatERK10QByteArray@Base 0.7.90
 _ZN13QFontEngineFT5GlyphD1Ev@Base 0.7.90
 _ZN13QFontEngineFT5GlyphD2Ev@Base 0.7.90
 _ZN13QFontEngineFT9QGlyphSet20removeGlyphFromCacheEj6QFixed@Base 0.7.90
 _ZN13QFontEngineFT9QGlyphSet5clearEv@Base 0.7.90
 _ZN13QFontEngineFT9QGlyphSet8setGlyphEj6QFixedPNS_5GlyphE@Base 0.7.90
 _ZN13QFontEngineFT9QGlyphSetC1Ev@Base 0.7.90
 _ZN13QFontEngineFT9QGlyphSetC2Ev@Base 0.7.90
 _ZN13QFontEngineFT9QGlyphSetD1Ev@Base 0.7.90
 _ZN13QFontEngineFT9QGlyphSetD2Ev@Base 0.7.90
 _ZN13QFontEngineFTC1ERK8QFontDef@Base 0.7.90
 _ZN13QFontEngineFTC2ERK8QFontDef@Base 0.7.90
 _ZN13QFontEngineFTD0Ev@Base 0.7.90
 _ZN13QFontEngineFTD1Ev@Base 0.7.90
 _ZN13QFontEngineFTD2Ev@Base 0.7.90
 _ZNK11GreenIsland8Platform10UdevDevice10deviceNodeEv@Base 0.7.90
 _ZNK11GreenIsland8Platform10UdevDevice11sysfsNumberEv@Base 0.7.90
 _ZNK11GreenIsland8Platform10UdevDevice15sysfsPropertiesEv@Base 0.7.90
 _ZNK11GreenIsland8Platform10UdevDevice16devicePropertiesEv@Base 0.7.90
 _ZNK11GreenIsland8Platform10UdevDevice23alternateDeviceSymlinksEv@Base 0.7.90
 _ZNK11GreenIsland8Platform10UdevDevice4nameEv@Base 0.7.90
 _ZNK11GreenIsland8Platform10UdevDevice4typeEv@Base 0.7.90
 _ZNK11GreenIsland8Platform10UdevDevice6driverEv@Base 0.7.90
 _ZNK11GreenIsland8Platform10UdevDevice6parentEv@Base 0.7.90
 _ZNK11GreenIsland8Platform10UdevDevice7devTypeEv@Base 0.7.90
 _ZNK11GreenIsland8Platform10UdevDevice9subsystemEv@Base 0.7.90
 _ZNK11GreenIsland8Platform10UdevDevice9sysfsPathEv@Base 0.7.90
 _ZNK11GreenIsland8Platform11EglFSCursor10cursorRectEv@Base 0.7.90
 _ZNK11GreenIsland8Platform11EglFSCursor10metaObjectEv@Base 0.7.90
 _ZNK11GreenIsland8Platform11EglFSCursor3posEv@Base 0.7.90
 _ZNK11GreenIsland8Platform11EglFSScreen10grabWindowEyiiii@Base 0.7.90
 _ZNK11GreenIsland8Platform11EglFSScreen10logicalDpiEv@Base 0.7.90
 _ZNK11GreenIsland8Platform11EglFSScreen10powerStateEv@Base 0.7.90
 _ZNK11GreenIsland8Platform11EglFSScreen11orientationEv@Base 0.7.90
 _ZNK11GreenIsland8Platform11EglFSScreen11refreshRateEv@Base 0.7.90
 _ZNK11GreenIsland8Platform11EglFSScreen12physicalSizeEv@Base 0.7.90
 _ZNK11GreenIsland8Platform11EglFSScreen17nativeOrientationEv@Base 0.7.90
 _ZNK11GreenIsland8Platform11EglFSScreen5depthEv@Base 0.7.90
 _ZNK11GreenIsland8Platform11EglFSScreen6cursorEv@Base 0.7.90
 _ZNK11GreenIsland8Platform11EglFSScreen6formatEv@Base 0.7.90
 _ZNK11GreenIsland8Platform11EglFSScreen8geometryEv@Base 0.7.90
 _ZNK11GreenIsland8Platform11EglFSWindow12sourceWindowEv@Base 0.7.90
 _ZNK11GreenIsland8Platform11EglFSWindow5winIdEv@Base 0.7.90
 _ZNK11GreenIsland8Platform11EglFSWindow6formatEv@Base 0.7.90
 _ZNK11GreenIsland8Platform11EglFSWindow6screenEv@Base 0.7.90
 _ZNK11GreenIsland8Platform11EglFSWindow7surfaceEv@Base 0.7.90
 _ZNK11GreenIsland8Platform11EglFSWindow8geometryEv@Base 0.7.90
 _ZNK11GreenIsland8Platform11EglFSWindow8isRasterEv@Base 0.7.90
 _ZNK11GreenIsland8Platform11EglFSWindow8texturesEv@Base 0.7.90
 _ZNK11GreenIsland8Platform11EglFSWindow9eglWindowEv@Base 0.7.90
 _ZNK11GreenIsland8Platform11UdevMonitor7isValidEv@Base 0.7.90
 _ZNK11GreenIsland8Platform13UdevEnumerate4scanEv@Base 0.7.90
 _ZNK11GreenIsland8Platform15LibInputHandler10metaObjectEv@Base 0.7.90
 _ZNK11GreenIsland8Platform15LibInputHandler11isSuspendedEv@Base 0.7.90
 _ZNK11GreenIsland8Platform15LibInputHandler12capabilitiesEv@Base 0.7.90
 _ZNK11GreenIsland8Platform16EglConfigChooser12filterConfigEPv@Base 0.7.90
 _ZNK11GreenIsland8Platform16EglFSIntegration12fontDatabaseEv@Base 0.7.90
 _ZNK11GreenIsland8Platform16EglFSIntegration12inputContextEv@Base 0.7.90
 _ZNK11GreenIsland8Platform16EglFSIntegration13hasCapabilityEN20QPlatformIntegration10CapabilityE@Base 0.7.90
 _ZNK11GreenIsland8Platform16EglFSIntegration13nativeDisplayEv@Base 0.7.90
 _ZNK11GreenIsland8Platform16EglFSIntegration15nativeInterfaceEv@Base 0.7.90
 _ZNK11GreenIsland8Platform16EglFSIntegration16platformFunctionERK10QByteArray@Base 0.7.90
 _ZNK11GreenIsland8Platform16EglFSIntegration20createPlatformWindowEP7QWindow@Base 0.7.90
 _ZNK11GreenIsland8Platform16EglFSIntegration21createEventDispatcherEv@Base 0.7.90
 _ZNK11GreenIsland8Platform16EglFSIntegration26createPlatformBackingStoreEP7QWindow@Base 0.7.90
 _ZNK11GreenIsland8Platform16EglFSIntegration27createPlatformOpenGLContextEP14QOpenGLContext@Base 0.7.90
 _ZNK11GreenIsland8Platform16EglFSIntegration30createPlatformOffscreenSurfaceEP17QOffscreenSurface@Base 0.7.90
 _ZNK11GreenIsland8Platform16EglFSIntegration7displayEv@Base 0.7.90
 _ZNK11GreenIsland8Platform16EglFSIntegration8servicesEv@Base 0.7.90
 _ZNK11GreenIsland8Platform16EglFSIntegration9vtHandlerEv@Base 0.7.90
 _ZNK11GreenIsland8Platform16OpenGLCompositor10metaObjectEv@Base 0.7.90
 _ZNK11GreenIsland8Platform18EGLPlatformContext10eglContextEv@Base 0.7.90
 _ZNK11GreenIsland8Platform18EGLPlatformContext10eglDisplayEv@Base 0.7.90
 _ZNK11GreenIsland8Platform18EGLPlatformContext6formatEv@Base 0.7.90
 _ZNK11GreenIsland8Platform18EGLPlatformContext9eglConfigEv@Base 0.7.90
 _ZNK11GreenIsland8Platform20EGLDeviceIntegration10logicalDpiEv@Base 0.7.90
 _ZNK11GreenIsland8Platform20EGLDeviceIntegration10screenSizeEv@Base 0.7.90
 _ZNK11GreenIsland8Platform20EGLDeviceIntegration11orientationEv@Base 0.7.90
 _ZNK11GreenIsland8Platform20EGLDeviceIntegration11refreshRateEv@Base 0.7.90
 _ZNK11GreenIsland8Platform20EGLDeviceIntegration11screenDepthEv@Base 0.7.90
 _ZNK11GreenIsland8Platform20EGLDeviceIntegration12createCursorEP15QPlatformScreen@Base 0.7.90
 _ZNK11GreenIsland8Platform20EGLDeviceIntegration12fbDeviceNameEv@Base 0.7.90
 _ZNK11GreenIsland8Platform20EGLDeviceIntegration12filterConfigEPvS2_@Base 0.7.90
 _ZNK11GreenIsland8Platform20EGLDeviceIntegration12screenFormatEv@Base 0.7.90
 _ZNK11GreenIsland8Platform20EGLDeviceIntegration12waitForVSyncEP16QPlatformSurface@Base 0.7.90
 _ZNK11GreenIsland8Platform20EGLDeviceIntegration13hasCapabilityEN20QPlatformIntegration10CapabilityE@Base 0.7.90
 _ZNK11GreenIsland8Platform20EGLDeviceIntegration15platformDisplayEv@Base 0.7.90
 _ZNK11GreenIsland8Platform20EGLDeviceIntegration16framebufferIndexEv@Base 0.7.90
 _ZNK11GreenIsland8Platform20EGLDeviceIntegration16supportsPBuffersEv@Base 0.7.90
 _ZNK11GreenIsland8Platform20EGLDeviceIntegration16surfaceFormatForERK14QSurfaceFormat@Base 0.7.90
 _ZNK11GreenIsland8Platform20EGLDeviceIntegration17nativeOrientationEv@Base 0.7.90
 _ZNK11GreenIsland8Platform20EGLDeviceIntegration18physicalScreenSizeEv@Base 0.7.90
 _ZNK11GreenIsland8Platform20EGLDeviceIntegration9wlDisplayEv@Base 0.7.90
 _ZNK11GreenIsland8Platform26EGLDeviceIntegrationPlugin10metaObjectEv@Base 0.7.90
 _ZNK11GreenIsland8Platform28OpenGLCompositorBackingStore7toImageEv@Base 0.7.90
 _ZNK11GreenIsland8Platform4Udev18deviceFromFileNameERK7QString@Base 0.7.90
 _ZNK11GreenIsland8Platform4Udev19deviceFromSysfsPathERK7QString@Base 0.7.90
 _ZNK11GreenIsland8Platform4Udev26deviceFromSubSystemAndNameERK7QStringS4_@Base 0.7.90
 _ZNK11GreenIsland8Platform4Udev7isValidEv@Base 0.7.90
 _ZNK11GreenIsland8Platform6Logind10metaObjectEv@Base 0.7.90
 _ZNK11GreenIsland8Platform6Logind11isConnectedEv@Base 0.7.90
 _ZNK11GreenIsland8Platform6Logind11isInhibitedEv@Base 0.7.90
 _ZNK11GreenIsland8Platform6Logind15isSessionActiveEv@Base 0.7.90
 _ZNK11GreenIsland8Platform6Logind17hasSessionControlEv@Base 0.7.90
 _ZNK11GreenIsland8Platform6Logind8vtNumberEv@Base 0.7.90
 _ZNK11GreenIsland8Platform9VtHandler10metaObjectEv@Base 0.7.90
 _ZNK11GreenIsland8Platform9VtHandler8isActiveEv@Base 0.7.90
 _ZNK13QFontEngineFT10glyphCountEv@Base 0.7.90
 _ZNK13QFontEngineFT10glyphIndexEj@Base 0.7.90
 _ZNK13QFontEngineFT10propertiesEv@Base 0.7.90
 _ZNK13QFontEngineFT10unlockFaceEv@Base 0.7.90
 _ZNK13QFontEngineFT11synthesizedEv@Base 0.7.90
 _ZNK13QFontEngineFT12emSquareSizeEv@Base 0.7.90
 _ZNK13QFontEngineFT12maxCharWidthEv@Base 0.7.90
 _ZNK13QFontEngineFT12stringToCMapEPK5QChariP12QGlyphLayoutPi6QFlagsIN11QFontEngine10ShaperFlagEE@Base 0.7.90
 _ZNK13QFontEngineFT13cloneWithSizeEd@Base 0.7.90
 _ZNK13QFontEngineFT13lineThicknessEv@Base 0.7.90
 _ZNK13QFontEngineFT14minLeftBearingEv@Base 0.7.90
 _ZNK13QFontEngineFT14recalcAdvancesEP12QGlyphLayout6QFlagsIN11QFontEngine10ShaperFlagEE@Base 0.7.90
 _ZNK13QFontEngineFT15minRightBearingEv@Base 0.7.90
 _ZNK13QFontEngineFT15non_locked_faceEv@Base 0.7.90
 _ZNK13QFontEngineFT16averageCharWidthEv@Base 0.7.90
 _ZNK13QFontEngineFT16getSfntTableDataEjPhPj@Base 0.7.90
 _ZNK13QFontEngineFT17underlinePositionEv@Base 0.7.90
 _ZNK13QFontEngineFT22shouldUseDesignMetricsE6QFlagsIN11QFontEngine10ShaperFlagEE@Base 0.7.90
 _ZNK13QFontEngineFT22supportsTransformationERK10QTransform@Base 0.7.90
 _ZNK13QFontEngineFT6ascentEv@Base 0.7.90
 _ZNK13QFontEngineFT6faceIdEv@Base 0.7.90
 _ZNK13QFontEngineFT7descentEv@Base 0.7.90
 _ZNK13QFontEngineFT7leadingEv@Base 0.7.90
 _ZNK13QFontEngineFT7xHeightEv@Base 0.7.90
 _ZNK13QFontEngineFT8lockFaceENS_7ScalingE@Base 0.7.90
 _ZNK13QFontEngineFT9doKerningEP12QGlyphLayout6QFlagsIN11QFontEngine10ShaperFlagEE@Base 0.7.90
 _ZNK13QFontEngineFT9loadFlagsEPNS_9QGlyphSetEN11QFontEngine11GlyphFormatEiRbRi@Base 0.7.90
 _ZNK13QFontEngineFT9loadGlyphEPNS_9QGlyphSetEj6QFixedN11QFontEngine11GlyphFormatEb@Base 0.7.90
 _ZTI13QFontEngineFT@Base 0.7.90
 _ZTI16QOpenGLFunctions@Base 0.7.90
 _ZTI27QEventDispatcherGlibPrivate@Base 0.7.90
 _ZTI31QAbstractEventDispatcherPrivate@Base 0.7.90
 _ZTIN11GreenIsland8Platform10EGLPbufferE@Base 0.7.90
 _ZTIN11GreenIsland8Platform11EglFSCursorE@Base 0.7.90
 _ZTIN11GreenIsland8Platform11EglFSScreenE@Base 0.7.90
 _ZTIN11GreenIsland8Platform11EglFSWindowE@Base 0.7.90
 _ZTIN11GreenIsland8Platform11UdevMonitorE@Base 0.7.90
 _ZTIN11GreenIsland8Platform12EglFSContextE@Base 0.7.90
 _ZTIN11GreenIsland8Platform15LibInputHandlerE@Base 0.7.90
 _ZTIN11GreenIsland8Platform16EglConfigChooserE@Base 0.7.90
 _ZTIN11GreenIsland8Platform16EglFSIntegrationE@Base 0.7.90
 _ZTIN11GreenIsland8Platform16OpenGLCompositorE@Base 0.7.90
 _ZTIN11GreenIsland8Platform18EGLPlatformContextE@Base 0.7.90
 _ZTIN11GreenIsland8Platform20EGLDeviceIntegrationE@Base 0.7.90
 _ZTIN11GreenIsland8Platform20EglFSOffscreenWindowE@Base 0.7.90
 _ZTIN11GreenIsland8Platform22OpenGLCompositorWindowE@Base 0.7.90
 _ZTIN11GreenIsland8Platform26EGLDeviceIntegrationPluginE@Base 0.7.90
 _ZTIN11GreenIsland8Platform28OpenGLCompositorBackingStoreE@Base 0.7.90
 _ZTIN11GreenIsland8Platform6LogindE@Base 0.7.90
 _ZTIN11GreenIsland8Platform9VtHandlerE@Base 0.7.90
 _ZTS13QFontEngineFT@Base 0.7.90
 _ZTS16QOpenGLFunctions@Base 0.7.90
 _ZTS27QEventDispatcherGlibPrivate@Base 0.7.90
 _ZTS31QAbstractEventDispatcherPrivate@Base 0.7.90
 _ZTSN11GreenIsland8Platform10EGLPbufferE@Base 0.7.90
 _ZTSN11GreenIsland8Platform11EglFSCursorE@Base 0.7.90
 _ZTSN11GreenIsland8Platform11EglFSScreenE@Base 0.7.90
 _ZTSN11GreenIsland8Platform11EglFSWindowE@Base 0.7.90
 _ZTSN11GreenIsland8Platform11UdevMonitorE@Base 0.7.90
 _ZTSN11GreenIsland8Platform12EglFSContextE@Base 0.7.90
 _ZTSN11GreenIsland8Platform15LibInputHandlerE@Base 0.7.90
 _ZTSN11GreenIsland8Platform16EglConfigChooserE@Base 0.7.90
 _ZTSN11GreenIsland8Platform16EglFSIntegrationE@Base 0.7.90
 _ZTSN11GreenIsland8Platform16OpenGLCompositorE@Base 0.7.90
 _ZTSN11GreenIsland8Platform18EGLPlatformContextE@Base 0.7.90
 _ZTSN11GreenIsland8Platform20EGLDeviceIntegrationE@Base 0.7.90
 _ZTSN11GreenIsland8Platform20EglFSOffscreenWindowE@Base 0.7.90
 _ZTSN11GreenIsland8Platform22OpenGLCompositorWindowE@Base 0.7.90
 _ZTSN11GreenIsland8Platform26EGLDeviceIntegrationPluginE@Base 0.7.90
 _ZTSN11GreenIsland8Platform28OpenGLCompositorBackingStoreE@Base 0.7.90
 _ZTSN11GreenIsland8Platform6LogindE@Base 0.7.90
 _ZTSN11GreenIsland8Platform9VtHandlerE@Base 0.7.90
 _ZTV13QFontEngineFT@Base 0.7.90
 _ZTV31QAbstractEventDispatcherPrivate@Base 0.7.90
 _ZTVN11GreenIsland8Platform10EGLPbufferE@Base 0.7.90
 _ZTVN11GreenIsland8Platform11EglFSCursorE@Base 0.7.90
 _ZTVN11GreenIsland8Platform11EglFSScreenE@Base 0.7.90
 _ZTVN11GreenIsland8Platform11EglFSWindowE@Base 0.7.90
 _ZTVN11GreenIsland8Platform11UdevMonitorE@Base 0.7.90
 _ZTVN11GreenIsland8Platform12EglFSContextE@Base 0.7.90
 _ZTVN11GreenIsland8Platform15LibInputHandlerE@Base 0.7.90
 _ZTVN11GreenIsland8Platform16EglConfigChooserE@Base 0.7.90
 _ZTVN11GreenIsland8Platform16EglFSIntegrationE@Base 0.7.90
 _ZTVN11GreenIsland8Platform16OpenGLCompositorE@Base 0.7.90
 _ZTVN11GreenIsland8Platform18EGLPlatformContextE@Base 0.7.90
 _ZTVN11GreenIsland8Platform20EGLDeviceIntegrationE@Base 0.7.90
 _ZTVN11GreenIsland8Platform20EglFSOffscreenWindowE@Base 0.7.90
 _ZTVN11GreenIsland8Platform26EGLDeviceIntegrationPluginE@Base 0.7.90
 _ZTVN11GreenIsland8Platform28OpenGLCompositorBackingStoreE@Base 0.7.90
 _ZTVN11GreenIsland8Platform6LogindE@Base 0.7.90
 _ZTVN11GreenIsland8Platform9VtHandlerE@Base 0.7.90
 _ZThn24_N11GreenIsland8Platform11EglFSWindow14endCompositingEv@Base 0.7.90
 _ZThn24_N11GreenIsland8Platform11EglFSWindowD0Ev@Base 0.7.90
 _ZThn24_N11GreenIsland8Platform11EglFSWindowD1Ev@Base 0.7.90
 _ZThn24_NK11GreenIsland8Platform11EglFSWindow12sourceWindowEv@Base 0.7.90
 _ZThn24_NK11GreenIsland8Platform11EglFSWindow8texturesEv@Base 0.7.90
 _ZThn8_N11GreenIsland8Platform16EglFSIntegration23nativeResourceForScreenERK10QByteArrayP7QScreen@Base 0.7.90
 _ZThn8_N11GreenIsland8Platform16EglFSIntegration23nativeResourceForWindowERK10QByteArrayP7QWindow@Base 0.7.90
 _ZThn8_N11GreenIsland8Platform16EglFSIntegration24nativeResourceForContextERK10QByteArrayP14QOpenGLContext@Base 0.7.90
 _ZThn8_N11GreenIsland8Platform16EglFSIntegration28nativeResourceForIntegrationERK10QByteArray@Base 0.7.90
 _ZThn8_N11GreenIsland8Platform16EglFSIntegration32nativeResourceFunctionForContextERK10QByteArray@Base 0.7.90
 _ZThn8_NK11GreenIsland8Platform16EglFSIntegration16platformFunctionERK10QByteArray@Base 0.7.90
