# SymbolsHelper-Confirmed: 0.7.90 amd64
libGreenIslandServer.so.0 libgreenisland-server0 #MINVER#
 _ZN11GreenIsland6Server10GtkSurface10initializeEPNS0_8GtkShellEP15QWaylandSurfaceP14QWaylandClientj@Base 0.7.90
 _ZN11GreenIsland6Server10GtkSurface10initializeEv@Base 0.7.90
 _ZN11GreenIsland6Server10GtkSurface10unsetModalEv@Base 0.7.90
 _ZN11GreenIsland6Server10GtkSurface11qt_metacallEN11QMetaObject4CallEiPPv@Base 0.7.90
 _ZN11GreenIsland6Server10GtkSurface11qt_metacastEPKc@Base 0.7.90
 _ZN11GreenIsland6Server10GtkSurface12appIdChangedERK7QString@Base 0.7.90
 _ZN11GreenIsland6Server10GtkSurface13interfaceNameEv@Base 0.7.90
 _ZN11GreenIsland6Server10GtkSurface14surfaceChangedEv@Base 0.7.90
 _ZN11GreenIsland6Server10GtkSurface16staticMetaObjectE@Base 0.7.90
 _ZN11GreenIsland6Server10GtkSurface18appMenuPathChangedERK7QString@Base 0.7.90
 _ZN11GreenIsland6Server10GtkSurface18menuBarPathChangedERK7QString@Base 0.7.90
 _ZN11GreenIsland6Server10GtkSurface20appObjectPathChangedERK7QString@Base 0.7.90
 _ZN11GreenIsland6Server10GtkSurface20uniqueBusNameChangedERK7QString@Base 0.7.90
 _ZN11GreenIsland6Server10GtkSurface23windowObjectPathChangedERK7QString@Base 0.7.90
 _ZN11GreenIsland6Server10GtkSurface8setModalEv@Base 0.7.90
 _ZN11GreenIsland6Server10GtkSurface9interfaceEv@Base 0.7.90
 _ZN11GreenIsland6Server10GtkSurfaceC1EPNS0_8GtkShellEP15QWaylandSurfaceP14QWaylandClientj@Base 0.7.90
 _ZN11GreenIsland6Server10GtkSurfaceC1Ev@Base 0.7.90
 _ZN11GreenIsland6Server10GtkSurfaceC2EPNS0_8GtkShellEP15QWaylandSurfaceP14QWaylandClientj@Base 0.7.90
 _ZN11GreenIsland6Server10GtkSurfaceC2Ev@Base 0.7.90
 _ZN11GreenIsland6Server10KeyBinding11qt_metacallEN11QMetaObject4CallEiPPv@Base 0.7.90
 _ZN11GreenIsland6Server10KeyBinding11qt_metacastEPKc@Base 0.7.90
 _ZN11GreenIsland6Server10KeyBinding16staticMetaObjectE@Base 0.7.90
 _ZN11GreenIsland6Server10KeyBindingC1ERK7QStringRK12QKeySequenceP7QObject@Base 0.7.90
 _ZN11GreenIsland6Server10KeyBindingC2ERK7QStringRK12QKeySequenceP7QObject@Base 0.7.90
 _ZN11GreenIsland6Server10KeyBindingeqERKS1_@Base 0.7.90
 _ZN11GreenIsland6Server10Screencast11qt_metacallEN11QMetaObject4CallEiPPv@Base 0.7.90
 _ZN11GreenIsland6Server10Screencast11qt_metacastEPKc@Base 0.7.90
 _ZN11GreenIsland6Server10Screencast13interfaceNameEv@Base 0.7.90
 _ZN11GreenIsland6Server10Screencast16staticMetaObjectE@Base 0.7.90
 _ZN11GreenIsland6Server10Screencast5eventEP6QEvent@Base 0.7.90
 _ZN11GreenIsland6Server10Screencast9interfaceEv@Base 0.7.90
 _ZN11GreenIsland6Server10ScreencastC1Ev@Base 0.7.90
 _ZN11GreenIsland6Server10ScreencastC2Ev@Base 0.7.90
 _ZN11GreenIsland6Server10ScreencastD0Ev@Base 0.7.90
 _ZN11GreenIsland6Server10ScreencastD1Ev@Base 0.7.90
 _ZN11GreenIsland6Server10ScreencastD2Ev@Base 0.7.90
 _ZN11GreenIsland6Server10Screenshot10selectAreaEP10QQuickItem@Base 0.7.90
 _ZN11GreenIsland6Server10Screenshot11qt_metacallEN11QMetaObject4CallEiPPv@Base 0.7.90
 _ZN11GreenIsland6Server10Screenshot11qt_metacastEPKc@Base 0.7.90
 _ZN11GreenIsland6Server10Screenshot13interfaceNameEv@Base 0.7.90
 _ZN11GreenIsland6Server10Screenshot13selectSurfaceEP15QWaylandSurface@Base 0.7.90
 _ZN11GreenIsland6Server10Screenshot16staticMetaObjectE@Base 0.7.90
 _ZN11GreenIsland6Server10Screenshot4doneEv@Base 0.7.90
 _ZN11GreenIsland6Server10Screenshot5setupEv@Base 0.7.90
 _ZN11GreenIsland6Server10Screenshot6failedENS1_5ErrorE@Base 0.7.90
 _ZN11GreenIsland6Server10Screenshot9interfaceEv@Base 0.7.90
 _ZN11GreenIsland6Server10ScreenshotC1ENS1_11CaptureTypeE6QFlagsINS0_13Screenshooter6EffectEE@Base 0.7.90
 _ZN11GreenIsland6Server10ScreenshotC2ENS1_11CaptureTypeE6QFlagsINS0_13Screenshooter6EffectEE@Base 0.7.90
 _ZN11GreenIsland6Server10XdgSurface10initializeEPNS0_8XdgShellEP15QWaylandSurfaceP14QWaylandClientj@Base 0.7.90
 _ZN11GreenIsland6Server10XdgSurface10initializeEv@Base 0.7.90
 _ZN11GreenIsland6Server10XdgSurface11qt_metacallEN11QMetaObject4CallEiPPv@Base 0.7.90
 _ZN11GreenIsland6Server10XdgSurface11qt_metacastEPKc@Base 0.7.90
 _ZN11GreenIsland6Server10XdgSurface11startResizeEP19QWaylandInputDeviceNS1_10ResizeEdgeE@Base 0.7.90
 _ZN11GreenIsland6Server10XdgSurface12appIdChangedEv@Base 0.7.90
 _ZN11GreenIsland6Server10XdgSurface12fromResourceEP11wl_resource@Base 0.7.90
 _ZN11GreenIsland6Server10XdgSurface12setTransientEP15QWaylandSurface@Base 0.7.90
 _ZN11GreenIsland6Server10XdgSurface12titleChangedEv@Base 0.7.90
 _ZN11GreenIsland6Server10XdgSurface13activeChangedEv@Base 0.7.90
 _ZN11GreenIsland6Server10XdgSurface13interfaceNameEv@Base 0.7.90
 _ZN11GreenIsland6Server10XdgSurface13pingRequestedEv@Base 0.7.90
 _ZN11GreenIsland6Server10XdgSurface13sendConfigureERK5QSize@Base 0.7.90
 _ZN11GreenIsland6Server10XdgSurface13sizeForResizeERK6QSizeFRK7QPointFNS1_10ResizeEdgeE@Base 0.7.90
 _ZN11GreenIsland6Server10XdgSurface14surfaceChangedEv@Base 0.7.90
 _ZN11GreenIsland6Server10XdgSurface16maximizedChangedEP14QWaylandOutput@Base 0.7.90
 _ZN11GreenIsland6Server10XdgSurface16staticMetaObjectE@Base 0.7.90
 _ZN11GreenIsland6Server10XdgSurface17fullScreenChangedEP14QWaylandOutput@Base 0.7.90
 _ZN11GreenIsland6Server10XdgSurface18setDefaultToplevelEv@Base 0.7.90
 _ZN11GreenIsland6Server10XdgSurface19windowMenuRequestedEP19QWaylandInputDeviceRK6QPoint@Base 0.7.90
 _ZN11GreenIsland6Server10XdgSurface21windowGeometryChangedEv@Base 0.7.90
 _ZN11GreenIsland6Server10XdgSurface4pingEv@Base 0.7.90
 _ZN11GreenIsland6Server10XdgSurface4pongEv@Base 0.7.90
 _ZN11GreenIsland6Server10XdgSurface5closeEv@Base 0.7.90
 _ZN11GreenIsland6Server10XdgSurface8minimizeEv@Base 0.7.90
 _ZN11GreenIsland6Server10XdgSurface9interfaceEv@Base 0.7.90
 _ZN11GreenIsland6Server10XdgSurface9setActiveEb@Base 0.7.90
 _ZN11GreenIsland6Server10XdgSurface9startMoveEP19QWaylandInputDevice@Base 0.7.90
 _ZN11GreenIsland6Server10XdgSurfaceC1EPNS0_8XdgShellEP15QWaylandSurfaceP14QWaylandClientj@Base 0.7.90
 _ZN11GreenIsland6Server10XdgSurfaceC1Ev@Base 0.7.90
 _ZN11GreenIsland6Server10XdgSurfaceC2EPNS0_8XdgShellEP15QWaylandSurfaceP14QWaylandClientj@Base 0.7.90
 _ZN11GreenIsland6Server10XdgSurfaceC2Ev@Base 0.7.90
 _ZN11GreenIsland6Server10XdgSurfaceD0Ev@Base 0.7.90
 _ZN11GreenIsland6Server10XdgSurfaceD1Ev@Base 0.7.90
 _ZN11GreenIsland6Server10XdgSurfaceD2Ev@Base 0.7.90
 _ZN11GreenIsland6Server11KeyBindings11qt_metacallEN11QMetaObject4CallEiPPv@Base 0.7.90
 _ZN11GreenIsland6Server11KeyBindings11qt_metacastEPKc@Base 0.7.90
 _ZN11GreenIsland6Server11KeyBindings16staticMetaObjectE@Base 0.7.90
 _ZN11GreenIsland6Server11KeyBindings17keyBindingPressedERK7QString@Base 0.7.90
 _ZN11GreenIsland6Server11KeyBindings18keyBindingReleasedERK7QString@Base 0.7.90
 _ZN11GreenIsland6Server11KeyBindings18registerKeyBindingERK7QStringS4_@Base 0.7.90
 _ZN11GreenIsland6Server11KeyBindings19keyBindingTriggeredENS1_6ActionERK7QString@Base 0.7.90
 _ZN11GreenIsland6Server11KeyBindings20unregisterKeyBindingERK7QString@Base 0.7.90
 _ZN11GreenIsland6Server11KeyBindingsC1EP7QObject@Base 0.7.90
 _ZN11GreenIsland6Server11KeyBindingsC2EP7QObject@Base 0.7.90
 _ZN11GreenIsland6Server11QuickOutput10initializeEv@Base 0.7.90
 _ZN11GreenIsland6Server11QuickOutput11qt_metacallEN11QMetaObject4CallEiPPv@Base 0.7.90
 _ZN11GreenIsland6Server11QuickOutput11qt_metacastEPKc@Base 0.7.90
 _ZN11GreenIsland6Server11QuickOutput11readContentEv@Base 0.7.90
 _ZN11GreenIsland6Server11QuickOutput13setPowerStateENS1_10PowerStateE@Base 0.7.90
 _ZN11GreenIsland6Server11QuickOutput14setHotSpotSizeERK5QSize@Base 0.7.90
 _ZN11GreenIsland6Server11QuickOutput15setNativeScreenEPNS0_6ScreenE@Base 0.7.90
 _ZN11GreenIsland6Server11QuickOutput16hotSpotTriggeredENS1_7HotSpotE@Base 0.7.90
 _ZN11GreenIsland6Server11QuickOutput16staticMetaObjectE@Base 0.7.90
 _ZN11GreenIsland6Server11QuickOutput17powerStateChangedEv@Base 0.7.90
 _ZN11GreenIsland6Server11QuickOutput18hotSpotSizeChangedEv@Base 0.7.90
 _ZN11GreenIsland6Server11QuickOutput18setHotSpotPushTimeEy@Base 0.7.90
 _ZN11GreenIsland6Server11QuickOutput19nativeScreenChangedEv@Base 0.7.90
 _ZN11GreenIsland6Server11QuickOutput19setHotSpotThresholdEy@Base 0.7.90
 _ZN11GreenIsland6Server11QuickOutput22hotSpotPushTimeChangedEv@Base 0.7.90
 _ZN11GreenIsland6Server11QuickOutput23hotSpotThresholdChangedEv@Base 0.7.90
 _ZN11GreenIsland6Server11QuickOutputC1EP18QWaylandCompositor@Base 0.7.90
 _ZN11GreenIsland6Server11QuickOutputC1Ev@Base 0.7.90
 _ZN11GreenIsland6Server11QuickOutputC2EP18QWaylandCompositor@Base 0.7.90
 _ZN11GreenIsland6Server11QuickOutputC2Ev@Base 0.7.90
 _ZN11GreenIsland6Server11TaskManager10initializeEv@Base 0.7.90
 _ZN11GreenIsland6Server11TaskManager11qt_metacallEN11QMetaObject4CallEiPPv@Base 0.7.90
 _ZN11GreenIsland6Server11TaskManager11qt_metacastEPKc@Base 0.7.90
 _ZN11GreenIsland6Server11TaskManager13interfaceNameEv@Base 0.7.90
 _ZN11GreenIsland6Server11TaskManager16staticMetaObjectE@Base 0.7.90
 _ZN11GreenIsland6Server11TaskManager9interfaceEv@Base 0.7.90
 _ZN11GreenIsland6Server11TaskManagerC1EP18QWaylandCompositor@Base 0.7.90
 _ZN11GreenIsland6Server11TaskManagerC1Ev@Base 0.7.90
 _ZN11GreenIsland6Server11TaskManagerC2EP18QWaylandCompositor@Base 0.7.90
 _ZN11GreenIsland6Server11TaskManagerC2Ev@Base 0.7.90
 _ZN11GreenIsland6Server12ClientWindow11qt_metacallEN11QMetaObject4CallEiPPv@Base 0.7.90
 _ZN11GreenIsland6Server12ClientWindow11qt_metacastEPKc@Base 0.7.90
 _ZN11GreenIsland6Server12ClientWindow11setPositionERK7QPointF@Base 0.7.90
 _ZN11GreenIsland6Server12ClientWindow11typeChangedEv@Base 0.7.90
 _ZN11GreenIsland6Server12ClientWindow12appIdChangedEv@Base 0.7.90
 _ZN11GreenIsland6Server12ClientWindow12setMinimizedEb@Base 0.7.90
 _ZN11GreenIsland6Server12ClientWindow12titleChangedEv@Base 0.7.90
 _ZN11GreenIsland6Server12ClientWindow12viewsChangedEv@Base 0.7.90
 _ZN11GreenIsland6Server12ClientWindow13activeChangedEv@Base 0.7.90
 _ZN11GreenIsland6Server12ClientWindow13pingRequestedEv@Base 0.7.90
 _ZN11GreenIsland6Server12ClientWindow14outputsChangedEv@Base 0.7.90
 _ZN11GreenIsland6Server12ClientWindow15iconNameChangedEv@Base 0.7.90
 _ZN11GreenIsland6Server12ClientWindow16maximizedChangedEv@Base 0.7.90
 _ZN11GreenIsland6Server12ClientWindow16minimizedChangedEv@Base 0.7.90
 _ZN11GreenIsland6Server12ClientWindow16staticMetaObjectE@Base 0.7.90
 _ZN11GreenIsland6Server12ClientWindow17fullScreenChangedEv@Base 0.7.90
 _ZN11GreenIsland6Server12ClientWindow19parentWindowChangedEv@Base 0.7.90
 _ZN11GreenIsland6Server12ClientWindow19setTaskIconGeometryERK5QRect@Base 0.7.90
 _ZN11GreenIsland6Server12ClientWindow19windowMenuRequestedEP19QWaylandInputDeviceRK6QPoint@Base 0.7.90
 _ZN11GreenIsland6Server12ClientWindow21designedOutputChangedEv@Base 0.7.90
 _ZN11GreenIsland6Server12ClientWindow21windowGeometryChangedEv@Base 0.7.90
 _ZN11GreenIsland6Server12ClientWindow23taskIconGeometryChangedEv@Base 0.7.90
 _ZN11GreenIsland6Server12ClientWindow4moveERK6QPoint@Base 0.7.90
 _ZN11GreenIsland6Server12ClientWindow4pongEv@Base 0.7.90
 _ZN11GreenIsland6Server12ClientWindow4setXEd@Base 0.7.90
 _ZN11GreenIsland6Server12ClientWindow4setYEd@Base 0.7.90
 _ZN11GreenIsland6Server12ClientWindow5lowerEv@Base 0.7.90
 _ZN11GreenIsland6Server12ClientWindow5raiseEv@Base 0.7.90
 _ZN11GreenIsland6Server12ClientWindow8xChangedEv@Base 0.7.90
 _ZN11GreenIsland6Server12ClientWindow8yChangedEv@Base 0.7.90
 _ZN11GreenIsland6Server12ClientWindow9setActiveEb@Base 0.7.90
 _ZN11GreenIsland6Server12ClientWindowC1EP15QWaylandSurfaceP7QObject@Base 0.7.90
 _ZN11GreenIsland6Server12ClientWindowC2EP15QWaylandSurfaceP7QObject@Base 0.7.90
 _ZN11GreenIsland6Server12ClientWindowD0Ev@Base 0.7.90
 _ZN11GreenIsland6Server12ClientWindowD1Ev@Base 0.7.90
 _ZN11GreenIsland6Server12ClientWindowD2Ev@Base 0.7.90
 _ZN11GreenIsland6Server12Screencaster10initializeEv@Base 0.7.90
 _ZN11GreenIsland6Server12Screencaster11qt_metacallEN11QMetaObject4CallEiPPv@Base 0.7.90
 _ZN11GreenIsland6Server12Screencaster11qt_metacastEPKc@Base 0.7.90
 _ZN11GreenIsland6Server12Screencaster11recordFrameEP12QQuickWindow@Base 0.7.90
 _ZN11GreenIsland6Server12Screencaster13interfaceNameEv@Base 0.7.90
 _ZN11GreenIsland6Server12Screencaster16captureRequestedEPNS0_10ScreencastE@Base 0.7.90
 _ZN11GreenIsland6Server12Screencaster16staticMetaObjectE@Base 0.7.90
 _ZN11GreenIsland6Server12Screencaster9interfaceEv@Base 0.7.90
 _ZN11GreenIsland6Server12ScreencasterC1EP18QWaylandCompositor@Base 0.7.90
 _ZN11GreenIsland6Server12ScreencasterC1Ev@Base 0.7.90
 _ZN11GreenIsland6Server12ScreencasterC2EP18QWaylandCompositor@Base 0.7.90
 _ZN11GreenIsland6Server12ScreencasterC2Ev@Base 0.7.90
 _ZN11GreenIsland6Server13ScreenBackend11qt_metacallEN11QMetaObject4CallEiPPv@Base 0.7.90
 _ZN11GreenIsland6Server13ScreenBackend11qt_metacastEPKc@Base 0.7.90
 _ZN11GreenIsland6Server13ScreenBackend11screenAddedEPNS0_6ScreenE@Base 0.7.90
 _ZN11GreenIsland6Server13ScreenBackend13screenRemovedEPNS0_6ScreenE@Base 0.7.90
 _ZN11GreenIsland6Server13ScreenBackend16staticMetaObjectE@Base 0.7.90
 _ZN11GreenIsland6Server13ScreenBackend20acquireConfigurationEv@Base 0.7.90
 _ZN11GreenIsland6Server13ScreenBackend20primaryScreenChangedEPNS0_6ScreenE@Base 0.7.90
 _ZN11GreenIsland6Server13ScreenBackendC1EP7QObject@Base 0.7.90
 _ZN11GreenIsland6Server13ScreenBackendC2EP7QObject@Base 0.7.90
 _ZN11GreenIsland6Server13ScreenBackendD0Ev@Base 0.7.90
 _ZN11GreenIsland6Server13ScreenBackendD1Ev@Base 0.7.90
 _ZN11GreenIsland6Server13ScreenBackendD2Ev@Base 0.7.90
 _ZN11GreenIsland6Server13ScreenManager11qt_metacallEN11QMetaObject4CallEiPPv@Base 0.7.90
 _ZN11GreenIsland6Server13ScreenManager11qt_metacastEPKc@Base 0.7.90
 _ZN11GreenIsland6Server13ScreenManager11screenAddedEPNS0_6ScreenE@Base 0.7.90
 _ZN11GreenIsland6Server13ScreenManager13screenRemovedEPNS0_6ScreenE@Base 0.7.90
 _ZN11GreenIsland6Server13ScreenManager16staticMetaObjectE@Base 0.7.90
 _ZN11GreenIsland6Server13ScreenManager20primaryScreenChangedEPNS0_6ScreenE@Base 0.7.90
 _ZN11GreenIsland6Server13ScreenManager6createEv@Base 0.7.90
 _ZN11GreenIsland6Server13ScreenManagerC1EP7QObject@Base 0.7.90
 _ZN11GreenIsland6Server13ScreenManagerC2EP7QObject@Base 0.7.90
 _ZN11GreenIsland6Server13ScreenPrivate11setPositionERK6QPoint@Base 0.7.90
 _ZN11GreenIsland6Server13ScreenPrivate11setSubpixelENS0_6Screen8SubpixelE@Base 0.7.90
 _ZN11GreenIsland6Server13ScreenPrivate12setTransformENS0_6Screen9TransformE@Base 0.7.90
 _ZN11GreenIsland6Server13ScreenPrivate14setRefreshRateEi@Base 0.7.90
 _ZN11GreenIsland6Server13ScreenPrivate14setScaleFactorEi@Base 0.7.90
 _ZN11GreenIsland6Server13ScreenPrivate15setPhysicalSizeERK6QSizeF@Base 0.7.90
 _ZN11GreenIsland6Server13ScreenPrivate7setSizeERK5QSize@Base 0.7.90
 _ZN11GreenIsland6Server13Screenshooter10initializeEv@Base 0.7.90
 _ZN11GreenIsland6Server13Screenshooter11qt_metacallEN11QMetaObject4CallEiPPv@Base 0.7.90
 _ZN11GreenIsland6Server13Screenshooter11qt_metacastEPKc@Base 0.7.90
 _ZN11GreenIsland6Server13Screenshooter13interfaceNameEv@Base 0.7.90
 _ZN11GreenIsland6Server13Screenshooter16captureRequestedEPNS0_10ScreenshotE@Base 0.7.90
 _ZN11GreenIsland6Server13Screenshooter16staticMetaObjectE@Base 0.7.90
 _ZN11GreenIsland6Server13Screenshooter9interfaceEv@Base 0.7.90
 _ZN11GreenIsland6Server13ScreenshooterC1EP18QWaylandCompositor@Base 0.7.90
 _ZN11GreenIsland6Server13ScreenshooterC1Ev@Base 0.7.90
 _ZN11GreenIsland6Server13ScreenshooterC2EP18QWaylandCompositor@Base 0.7.90
 _ZN11GreenIsland6Server13ScreenshooterC2Ev@Base 0.7.90
 _ZN11GreenIsland6Server13WindowManager10initializeEv@Base 0.7.90
 _ZN11GreenIsland6Server13WindowManager10setWlPopupEP19QWaylandInputDeviceP15QWaylandSurfaceRK6QPoint@Base 0.7.90
 _ZN11GreenIsland6Server13WindowManager11qt_metacallEN11QMetaObject4CallEiPPv@Base 0.7.90
 _ZN11GreenIsland6Server13WindowManager11qt_metacastEPKc@Base 0.7.90
 _ZN11GreenIsland6Server13WindowManager11setTopLevelEv@Base 0.7.90
 _ZN11GreenIsland6Server13WindowManager12setMaximizedEP14QWaylandOutput@Base 0.7.90
 _ZN11GreenIsland6Server13WindowManager13setCompositorEP18QWaylandCompositor@Base 0.7.90
 _ZN11GreenIsland6Server13WindowManager13windowCreatedEPNS0_12ClientWindowE@Base 0.7.90
 _ZN11GreenIsland6Server13WindowManager14createXdgPopupEP19QWaylandInputDeviceP15QWaylandSurfaceS5_RK6QPointP14QWaylandClientj@Base 0.7.90
 _ZN11GreenIsland6Server13WindowManager14setWlTransientEP15QWaylandSurfaceRK6QPointN20QWaylandShellSurface11FocusPolicyE@Base 0.7.90
 _ZN11GreenIsland6Server13WindowManager14windowsChangedEv@Base 0.7.90
 _ZN11GreenIsland6Server13WindowManager15setWlFullScreenEN20QWaylandShellSurface16FullScreenMethodEjP14QWaylandOutput@Base 0.7.90
 _ZN11GreenIsland6Server13WindowManager15setXdgTransientEP15QWaylandSurface@Base 0.7.90
 _ZN11GreenIsland6Server13WindowManager16createXdgSurfaceEP15QWaylandSurfaceP14QWaylandClientj@Base 0.7.90
 _ZN11GreenIsland6Server13WindowManager16setXdgFullScreenEP14QWaylandOutput@Base 0.7.90
 _ZN11GreenIsland6Server13WindowManager16staticMetaObjectE@Base 0.7.90
 _ZN11GreenIsland6Server13WindowManager16surfaceDestroyedEv@Base 0.7.90
 _ZN11GreenIsland6Server13WindowManager17compositorChangedEv@Base 0.7.90
 _ZN11GreenIsland6Server13WindowManager20createWlShellSurfaceEP15QWaylandSurfaceP14QWaylandClientj@Base 0.7.90
 _ZN11GreenIsland6Server13WindowManager20setXdgWindowGeometryEv@Base 0.7.90
 _ZN11GreenIsland6Server13WindowManager21createGtkShellSurfaceEP15QWaylandSurfaceP14QWaylandClientj@Base 0.7.90
 _ZN11GreenIsland6Server13WindowManager26recalculateVirtualGeometryEv@Base 0.7.90
 _ZN11GreenIsland6Server13WindowManager8setAppIdEv@Base 0.7.90
 _ZN11GreenIsland6Server13WindowManager8setTitleEv@Base 0.7.90
 _ZN11GreenIsland6Server13WindowManagerC1EP18QWaylandCompositorP7QObject@Base 0.7.90
 _ZN11GreenIsland6Server13WindowManagerC1EP7QObject@Base 0.7.90
 _ZN11GreenIsland6Server13WindowManagerC2EP18QWaylandCompositorP7QObject@Base 0.7.90
 _ZN11GreenIsland6Server13WindowManagerC2EP7QObject@Base 0.7.90
 _ZN11GreenIsland6Server14AbstractPlugin11qt_metacallEN11QMetaObject4CallEiPPv@Base 0.7.90
 _ZN11GreenIsland6Server14AbstractPlugin11qt_metacastEPKc@Base 0.7.90
 _ZN11GreenIsland6Server14AbstractPlugin16staticMetaObjectE@Base 0.7.90
 _ZN11GreenIsland6Server14AbstractPluginD0Ev@Base 0.7.90
 _ZN11GreenIsland6Server14AbstractPluginD1Ev@Base 0.7.90
 _ZN11GreenIsland6Server14AbstractPluginD2Ev@Base 0.7.90
 _ZN11GreenIsland6Server15GtkShellPrivate19shell_bind_resourceEPN15QtWaylandServer9gtk_shell8ResourceE@Base 0.7.90
 _ZN11GreenIsland6Server15GtkShellPrivate21shell_get_gtk_surfaceEPN15QtWaylandServer9gtk_shell8ResourceEjP11wl_resource@Base 0.7.90
 _ZN11GreenIsland6Server15GtkShellPrivate22shell_destroy_resourceEPN15QtWaylandServer9gtk_shell8ResourceE@Base 0.7.90
 _ZN11GreenIsland6Server15GtkShellPrivateC1Ev@Base 0.7.90
 _ZN11GreenIsland6Server15GtkShellPrivateC2Ev@Base 0.7.90
 _ZN11GreenIsland6Server15HomeApplication11qt_metacallEN11QMetaObject4CallEiPPv@Base 0.7.90
 _ZN11GreenIsland6Server15HomeApplication11qt_metacastEPKc@Base 0.7.90
 _ZN11GreenIsland6Server15HomeApplication13objectCreatedEP7QObjectRK4QUrl@Base 0.7.90
 _ZN11GreenIsland6Server15HomeApplication16staticMetaObjectE@Base 0.7.90
 _ZN11GreenIsland6Server15HomeApplication18setContextPropertyERK7QStringP7QObject@Base 0.7.90
 _ZN11GreenIsland6Server15HomeApplication18setContextPropertyERK7QStringRK8QVariant@Base 0.7.90
 _ZN11GreenIsland6Server15HomeApplication22contextPropertyChangedERK7QStringP7QObject@Base 0.7.90
 _ZN11GreenIsland6Server15HomeApplication22contextPropertyChangedERK7QStringRK8QVariant@Base 0.7.90
 _ZN11GreenIsland6Server15HomeApplication22setNotificationEnabledEb@Base 0.7.90
 _ZN11GreenIsland6Server15HomeApplication22setScreenConfigurationERK7QString@Base 0.7.90
 _ZN11GreenIsland6Server15HomeApplication26notificationEnabledChangedEb@Base 0.7.90
 _ZN11GreenIsland6Server15HomeApplication26screenConfigurationChangedERK7QString@Base 0.7.90
 _ZN11GreenIsland6Server15HomeApplication4loadERK7QString@Base 0.7.90
 _ZN11GreenIsland6Server15HomeApplication7loadUrlERK4QUrl@Base 0.7.90
 _ZN11GreenIsland6Server15HomeApplicationC1EP7QObject@Base 0.7.90
 _ZN11GreenIsland6Server15HomeApplicationC2EP7QObject@Base 0.7.90
 _ZN11GreenIsland6Server15TaskItemPrivate13determineTypeEv@Base 0.7.90
 _ZN11GreenIsland6Server15TaskItemPrivate14determineStateEv@Base 0.7.90
 _ZN11GreenIsland6Server15TaskItemPrivateC1EPNS0_12ClientWindowE@Base 0.7.90
 _ZN11GreenIsland6Server15TaskItemPrivateC2EPNS0_12ClientWindowE@Base 0.7.90
 _ZN11GreenIsland6Server15XdgPopupPrivate13popup_destroyEPN15QtWaylandServer9xdg_popup8ResourceE@Base 0.7.90
 _ZN11GreenIsland6Server15XdgPopupPrivate22popup_destroy_resourceEPN15QtWaylandServer9xdg_popup8ResourceE@Base 0.7.90
 _ZN11GreenIsland6Server15XdgPopupPrivateC1Ev@Base 0.7.90
 _ZN11GreenIsland6Server15XdgPopupPrivateC2Ev@Base 0.7.90
 _ZN11GreenIsland6Server15XdgPopupPrivateD0Ev@Base 0.7.90
 _ZN11GreenIsland6Server15XdgPopupPrivateD1Ev@Base 0.7.90
 _ZN11GreenIsland6Server15XdgPopupPrivateD2Ev@Base 0.7.90
 _ZN11GreenIsland6Server15XdgShellPrivate10shell_pongEPN15QtWaylandServer9xdg_shell8ResourceEj@Base 0.7.90
 _ZN11GreenIsland6Server15XdgShellPrivate11removePopupEPNS0_8XdgPopupE@Base 0.7.90
 _ZN11GreenIsland6Server15XdgShellPrivate13shell_destroyEPN15QtWaylandServer9xdg_shell8ResourceE@Base 0.7.90
 _ZN11GreenIsland6Server15XdgShellPrivate19shell_get_xdg_popupEPN15QtWaylandServer9xdg_shell8ResourceEjP11wl_resourceS7_S7_jii@Base 0.7.90
 _ZN11GreenIsland6Server15XdgShellPrivate21shell_get_xdg_surfaceEPN15QtWaylandServer9xdg_shell8ResourceEjP11wl_resource@Base 0.7.90
 _ZN11GreenIsland6Server15XdgShellPrivate26shell_use_unstable_versionEPN15QtWaylandServer9xdg_shell8ResourceEi@Base 0.7.90
 _ZN11GreenIsland6Server15XdgShellPrivate4pingEPNS0_10XdgSurfaceE@Base 0.7.90
 _ZN11GreenIsland6Server15XdgShellPrivate4pingEjPNS0_10XdgSurfaceE@Base 0.7.90
 _ZN11GreenIsland6Server15XdgShellPrivate8addPopupEPNS0_8XdgPopupEP19QWaylandInputDevice@Base 0.7.90
 _ZN11GreenIsland6Server15XdgShellPrivateC1Ev@Base 0.7.90
 _ZN11GreenIsland6Server15XdgShellPrivateC2Ev@Base 0.7.90
 _ZN11GreenIsland6Server16ClientWindowView10initializeEPNS0_12ClientWindowEP19QWaylandQuickOutput@Base 0.7.90
 _ZN11GreenIsland6Server16ClientWindowView11qt_metacallEN11QMetaObject4CallEiPPv@Base 0.7.90
 _ZN11GreenIsland6Server16ClientWindowView11qt_metacastEPKc@Base 0.7.90
 _ZN11GreenIsland6Server16ClientWindowView13outputChangedEv@Base 0.7.90
 _ZN11GreenIsland6Server16ClientWindowView16staticMetaObjectE@Base 0.7.90
 _ZN11GreenIsland6Server16ClientWindowView21childMouseEventFilterEP10QQuickItemP6QEvent@Base 0.7.90
 _ZN11GreenIsland6Server16ClientWindowView22savedPropertiesChangedEv@Base 0.7.90
 _ZN11GreenIsland6Server16ClientWindowView23shellSurfaceItemChangedEv@Base 0.7.90
 _ZN11GreenIsland6Server16ClientWindowView28shellSurfaceItemWidthChangedEv@Base 0.7.90
 _ZN11GreenIsland6Server16ClientWindowView29shellSurfaceItemHeightChangedEv@Base 0.7.90
 _ZN11GreenIsland6Server16ClientWindowViewC1EP10QQuickItem@Base 0.7.90
 _ZN11GreenIsland6Server16ClientWindowViewC2EP10QQuickItem@Base 0.7.90
 _ZN11GreenIsland6Server17FakeScreenBackend11qt_metacallEN11QMetaObject4CallEiPPv@Base 0.7.90
 _ZN11GreenIsland6Server17FakeScreenBackend11qt_metacastEPKc@Base 0.7.90
 _ZN11GreenIsland6Server17FakeScreenBackend16setConfigurationERK7QString@Base 0.7.90
 _ZN11GreenIsland6Server17FakeScreenBackend16staticMetaObjectE@Base 0.7.90
 _ZN11GreenIsland6Server17FakeScreenBackend20acquireConfigurationEv@Base 0.7.90
 _ZN11GreenIsland6Server17FakeScreenBackendC1EP7QObject@Base 0.7.90
 _ZN11GreenIsland6Server17FakeScreenBackendC2EP7QObject@Base 0.7.90
 _ZN11GreenIsland6Server17GtkSurfacePrivate17surface_set_modalEPN15QtWaylandServer11gtk_surface8ResourceE@Base 0.7.90
 _ZN11GreenIsland6Server17GtkSurfacePrivate19surface_unset_modalEPN15QtWaylandServer11gtk_surface8ResourceE@Base 0.7.90
 _ZN11GreenIsland6Server17GtkSurfacePrivate24surface_destroy_resourceEPN15QtWaylandServer11gtk_surface8ResourceE@Base 0.7.90
 _ZN11GreenIsland6Server17GtkSurfacePrivate27surface_set_dbus_propertiesEPN15QtWaylandServer11gtk_surface8ResourceERK7QStringS8_S8_S8_S8_S8_@Base 0.7.90
 _ZN11GreenIsland6Server17GtkSurfacePrivateC1Ev@Base 0.7.90
 _ZN11GreenIsland6Server17GtkSurfacePrivateC2Ev@Base 0.7.90
 _ZN11GreenIsland6Server17GtkSurfacePrivateD0Ev@Base 0.7.90
 _ZN11GreenIsland6Server17GtkSurfacePrivateD1Ev@Base 0.7.90
 _ZN11GreenIsland6Server17GtkSurfacePrivateD2Ev@Base 0.7.90
 _ZN11GreenIsland6Server17QuickXdgPopupItem11eventFilterEP7QObjectP6QEvent@Base 0.7.90
 _ZN11GreenIsland6Server17QuickXdgPopupItem11qt_metacallEN11QMetaObject4CallEiPPv@Base 0.7.90
 _ZN11GreenIsland6Server17QuickXdgPopupItem11qt_metacastEPKc@Base 0.7.90
 _ZN11GreenIsland6Server17QuickXdgPopupItem15setShellSurfaceEPNS0_8XdgPopupE@Base 0.7.90
 _ZN11GreenIsland6Server17QuickXdgPopupItem16staticMetaObjectE@Base 0.7.90
 _ZN11GreenIsland6Server17QuickXdgPopupItem17componentCompleteEv@Base 0.7.90
 _ZN11GreenIsland6Server17QuickXdgPopupItem17mouseReleaseEventEP11QMouseEvent@Base 0.7.90
 _ZN11GreenIsland6Server17QuickXdgPopupItem19handleWindowChangedEP12QQuickWindow@Base 0.7.90
 _ZN11GreenIsland6Server17QuickXdgPopupItem19shellSurfaceChangedEv@Base 0.7.90
 _ZN11GreenIsland6Server17QuickXdgPopupItem19surfaceChangedEventEP15QWaylandSurfaceS3_@Base 0.7.90
 _ZN11GreenIsland6Server17QuickXdgPopupItem24adjustOffsetForNextFrameERK7QPointF@Base 0.7.90
 _ZN11GreenIsland6Server17QuickXdgPopupItemC1EP10QQuickItem@Base 0.7.90
 _ZN11GreenIsland6Server17QuickXdgPopupItemC1ERNS0_24QuickXdgPopupItemPrivateEP10QQuickItem@Base 0.7.90
 _ZN11GreenIsland6Server17QuickXdgPopupItemC2EP10QQuickItem@Base 0.7.90
 _ZN11GreenIsland6Server17QuickXdgPopupItemC2ERNS0_24QuickXdgPopupItemPrivateEP10QQuickItem@Base 0.7.90
 _ZN11GreenIsland6Server17ScreencastPrivate14frameRecordingEPNS0_10ScreencastEjRK6QImage@Base 0.7.90
 _ZN11GreenIsland6Server17ScreencastPrivate17screencast_recordEPN15QtWaylandServer22greenisland_screencast8ResourceEP11wl_resource@Base 0.7.90
 _ZN11GreenIsland6Server17ScreencastPrivate18screencast_destroyEPN15QtWaylandServer22greenisland_screencast8ResourceE@Base 0.7.90
 _ZN11GreenIsland6Server17ScreencastPrivateC1Ev@Base 0.7.90
 _ZN11GreenIsland6Server17ScreencastPrivateC2Ev@Base 0.7.90
 _ZN11GreenIsland6Server17ScreenshotPrivate17screenshot_recordEPN15QtWaylandServer22greenisland_screenshot8ResourceEP11wl_resource@Base 0.7.90
 _ZN11GreenIsland6Server17ScreenshotPrivate18screenshot_destroyEPN15QtWaylandServer22greenisland_screenshot8ResourceE@Base 0.7.90
 _ZN11GreenIsland6Server17ScreenshotPrivate8grabItemEP10QQuickItem@Base 0.7.90
 _ZN11GreenIsland6Server17ScreenshotPrivateC1Ev@Base 0.7.90
 _ZN11GreenIsland6Server17ScreenshotPrivateC2Ev@Base 0.7.90
 _ZN11GreenIsland6Server17XdgSurfacePrivate12sendActivateEv@Base 0.7.90
 _ZN11GreenIsland6Server17XdgSurfacePrivate12surface_moveEPN15QtWaylandServer11xdg_surface8ResourceEP11wl_resourcej@Base 0.7.90
 _ZN11GreenIsland6Server17XdgSurfacePrivate13sendConfigureERKNS1_13PendingChangeE@Base 0.7.90
 _ZN11GreenIsland6Server17XdgSurfacePrivate14surface_resizeEPN15QtWaylandServer11xdg_surface8ResourceEP11wl_resourcejj@Base 0.7.90
 _ZN11GreenIsland6Server17XdgSurfacePrivate15surface_destroyEPN15QtWaylandServer11xdg_surface8ResourceE@Base 0.7.90
 _ZN11GreenIsland6Server17XdgSurfacePrivate17surface_set_titleEPN15QtWaylandServer11xdg_surface8ResourceERK7QString@Base 0.7.90
 _ZN11GreenIsland6Server17XdgSurfacePrivate18surface_set_app_idEPN15QtWaylandServer11xdg_surface8ResourceERK7QString@Base 0.7.90
 _ZN11GreenIsland6Server17XdgSurfacePrivate18surface_set_parentEPN15QtWaylandServer11xdg_surface8ResourceEP11wl_resource@Base 0.7.90
 _ZN11GreenIsland6Server17XdgSurfacePrivate21surface_ack_configureEPN15QtWaylandServer11xdg_surface8ResourceEj@Base 0.7.90
 _ZN11GreenIsland6Server17XdgSurfacePrivate21surface_set_maximizedEPN15QtWaylandServer11xdg_surface8ResourceE@Base 0.7.90
 _ZN11GreenIsland6Server17XdgSurfacePrivate21surface_set_minimizedEPN15QtWaylandServer11xdg_surface8ResourceE@Base 0.7.90
 _ZN11GreenIsland6Server17XdgSurfacePrivate22surface_set_fullscreenEPN15QtWaylandServer11xdg_surface8ResourceEP11wl_resource@Base 0.7.90
 _ZN11GreenIsland6Server17XdgSurfacePrivate23surface_unset_maximizedEPN15QtWaylandServer11xdg_surface8ResourceE@Base 0.7.90
 _ZN11GreenIsland6Server17XdgSurfacePrivate24surface_destroy_resourceEPN15QtWaylandServer11xdg_surface8ResourceE@Base 0.7.90
 _ZN11GreenIsland6Server17XdgSurfacePrivate24surface_show_window_menuEPN15QtWaylandServer11xdg_surface8ResourceEP11wl_resourcejii@Base 0.7.90
 _ZN11GreenIsland6Server17XdgSurfacePrivate24surface_unset_fullscreenEPN15QtWaylandServer11xdg_surface8ResourceE@Base 0.7.90
 _ZN11GreenIsland6Server17XdgSurfacePrivate27surface_set_window_geometryEPN15QtWaylandServer11xdg_surface8ResourceEiiii@Base 0.7.90
 _ZN11GreenIsland6Server17XdgSurfacePrivateC1Ev@Base 0.7.90
 _ZN11GreenIsland6Server17XdgSurfacePrivateC2Ev@Base 0.7.90
 _ZN11GreenIsland6Server17XdgSurfacePrivateD0Ev@Base 0.7.90
 _ZN11GreenIsland6Server17XdgSurfacePrivateD1Ev@Base 0.7.90
 _ZN11GreenIsland6Server17XdgSurfacePrivateD2Ev@Base 0.7.90
 _ZN11GreenIsland6Server18ApplicationManager10initializeEv@Base 0.7.90
 _ZN11GreenIsland6Server18ApplicationManager11qt_metacallEN11QMetaObject4CallEiPPv@Base 0.7.90
 _ZN11GreenIsland6Server18ApplicationManager11qt_metacastEPKc@Base 0.7.90
 _ZN11GreenIsland6Server18ApplicationManager13interfaceNameEv@Base 0.7.90
 _ZN11GreenIsland6Server18ApplicationManager16applicationAddedERK7QStringi@Base 0.7.90
 _ZN11GreenIsland6Server18ApplicationManager16staticMetaObjectE@Base 0.7.90
 _ZN11GreenIsland6Server18ApplicationManager18applicationFocusedERK7QString@Base 0.7.90
 _ZN11GreenIsland6Server18ApplicationManager18applicationRemovedERK7QStringi@Base 0.7.90
 _ZN11GreenIsland6Server18ApplicationManager20applicationUnfocusedERK7QString@Base 0.7.90
 _ZN11GreenIsland6Server18ApplicationManager4quitERK7QString@Base 0.7.90
 _ZN11GreenIsland6Server18ApplicationManager9interfaceEv@Base 0.7.90
 _ZN11GreenIsland6Server18ApplicationManagerC1EP18QWaylandCompositor@Base 0.7.90
 _ZN11GreenIsland6Server18ApplicationManagerC1Ev@Base 0.7.90
 _ZN11GreenIsland6Server18ApplicationManagerC2EP18QWaylandCompositor@Base 0.7.90
 _ZN11GreenIsland6Server18ApplicationManagerC2Ev@Base 0.7.90
 _ZN11GreenIsland6Server18CompositorSettings10classBeginEv@Base 0.7.90
 _ZN11GreenIsland6Server18CompositorSettings11qt_metacallEN11QMetaObject4CallEiPPv@Base 0.7.90
 _ZN11GreenIsland6Server18CompositorSettings11qt_metacastEPKc@Base 0.7.90
 _ZN11GreenIsland6Server18CompositorSettings13keymapChangedEv@Base 0.7.90
 _ZN11GreenIsland6Server18CompositorSettings13setCompositorEP18QWaylandCompositor@Base 0.7.90
 _ZN11GreenIsland6Server18CompositorSettings16staticMetaObjectE@Base 0.7.90
 _ZN11GreenIsland6Server18CompositorSettings17componentCompleteEv@Base 0.7.90
 _ZN11GreenIsland6Server18CompositorSettings17compositorChangedEv@Base 0.7.90
 _ZN11GreenIsland6Server18CompositorSettings18setWindowActionKeyEN2Qt16KeyboardModifierE@Base 0.7.90
 _ZN11GreenIsland6Server18CompositorSettings21setKeyboardRepeatRateEj@Base 0.7.90
 _ZN11GreenIsland6Server18CompositorSettings22setKeyboardRepeatDelayEj@Base 0.7.90
 _ZN11GreenIsland6Server18CompositorSettings22windowActionKeyChangedEv@Base 0.7.90
 _ZN11GreenIsland6Server18CompositorSettings25keyboardRepeatRateChangedEv@Base 0.7.90
 _ZN11GreenIsland6Server18CompositorSettings26keyboardRepeatDelayChangedEv@Base 0.7.90
 _ZN11GreenIsland6Server18CompositorSettings9setKeymapEPNS0_6KeymapE@Base 0.7.90
 _ZN11GreenIsland6Server18CompositorSettingsC1EP7QObject@Base 0.7.90
 _ZN11GreenIsland6Server18CompositorSettingsC2EP7QObject@Base 0.7.90
 _ZN11GreenIsland6Server18QuickScreenManager10classBeginEv@Base 0.7.90
 _ZN11GreenIsland6Server18QuickScreenManager11qt_metacallEN11QMetaObject4CallEiPPv@Base 0.7.90
 _ZN11GreenIsland6Server18QuickScreenManager11qt_metacastEPKc@Base 0.7.90
 _ZN11GreenIsland6Server18QuickScreenManager16staticMetaObjectE@Base 0.7.90
 _ZN11GreenIsland6Server18QuickScreenManager17componentCompleteEv@Base 0.7.90
 _ZN11GreenIsland6Server18QuickScreenManager6createEv@Base 0.7.90
 _ZN11GreenIsland6Server18QuickScreenManagerC1EP7QObject@Base 0.7.90
 _ZN11GreenIsland6Server18QuickScreenManagerC2EP7QObject@Base 0.7.90
 _ZN11GreenIsland6Server18TaskManagerPrivate12windowMappedEPNS0_12ClientWindowE@Base 0.7.90
 _ZN11GreenIsland6Server18TaskManagerPrivate14windowUnmappedEPNS0_12ClientWindowE@Base 0.7.90
 _ZN11GreenIsland6Server18TaskManagerPrivate21windows_bind_resourceEPN15QtWaylandServer19greenisland_windows8ResourceE@Base 0.7.90
 _ZN11GreenIsland6Server18TaskManagerPrivateC1Ev@Base 0.7.90
 _ZN11GreenIsland6Server18TaskManagerPrivateC2Ev@Base 0.7.90
 _ZN11GreenIsland6Server18TaskManagerPrivateD0Ev@Base 0.7.90
 _ZN11GreenIsland6Server18TaskManagerPrivateD1Ev@Base 0.7.90
 _ZN11GreenIsland6Server18TaskManagerPrivateD2Ev@Base 0.7.90
 _ZN11GreenIsland6Server19ClientWindowPrivate10setSurfaceEP15QWaylandSurface@Base 0.7.90
 _ZN11GreenIsland6Server19ClientWindowPrivate11findOutputsEv@Base 0.7.90
 _ZN11GreenIsland6Server19ClientWindowPrivate11setTopLevelEv@Base 0.7.90
 _ZN11GreenIsland6Server19ClientWindowPrivate11windowViewsEv@Base 0.7.90
 _ZN11GreenIsland6Server19ClientWindowPrivate12outputsCountEP16QQmlListPropertyI14QWaylandOutputE@Base 0.7.90
 _ZN11GreenIsland6Server19ClientWindowPrivate12setMaximizedEP14QWaylandOutput@Base 0.7.90
 _ZN11GreenIsland6Server19ClientWindowPrivate12setTransientEPNS0_12ClientWindowERK6QPointb@Base 0.7.90
 _ZN11GreenIsland6Server19ClientWindowPrivate13setFullScreenEP14QWaylandOutput@Base 0.7.90
 _ZN11GreenIsland6Server19ClientWindowPrivate13windowViewsAtEP16QQmlListPropertyINS0_16ClientWindowViewEEi@Base 0.7.90
 _ZN11GreenIsland6Server19ClientWindowPrivate14unsetMaximizedEv@Base 0.7.90
 _ZN11GreenIsland6Server19ClientWindowPrivate15findDesktopFileERK7QString@Base 0.7.90
 _ZN11GreenIsland6Server19ClientWindowPrivate15setParentWindowEPNS0_12ClientWindowE@Base 0.7.90
 _ZN11GreenIsland6Server19ClientWindowPrivate15unsetFullScreenEv@Base 0.7.90
 _ZN11GreenIsland6Server19ClientWindowPrivate16windowViewsCountEP16QQmlListPropertyINS0_16ClientWindowViewEE@Base 0.7.90
 _ZN11GreenIsland6Server19ClientWindowPrivate17setWindowGeometryERK5QRect@Base 0.7.90
 _ZN11GreenIsland6Server19ClientWindowPrivate7outputsEv@Base 0.7.90
 _ZN11GreenIsland6Server19ClientWindowPrivate7setTypeENS0_12ClientWindow4TypeE@Base 0.7.90
 _ZN11GreenIsland6Server19ClientWindowPrivate8setAppIdERK7QString@Base 0.7.90
 _ZN11GreenIsland6Server19ClientWindowPrivate8setPopupEP19QWaylandInputDeviceP15QWaylandSurfaceRK6QPoint@Base 0.7.90
 _ZN11GreenIsland6Server19ClientWindowPrivate8setTitleERK7QString@Base 0.7.90
 _ZN11GreenIsland6Server19ClientWindowPrivate9outputsAtEP16QQmlListPropertyI14QWaylandOutputEi@Base 0.7.90
 _ZN11GreenIsland6Server19ClientWindowPrivate9setActiveEb@Base 0.7.90
 _ZN11GreenIsland6Server19NativeScreenBackend11qt_metacallEN11QMetaObject4CallEiPPv@Base 0.7.90
 _ZN11GreenIsland6Server19NativeScreenBackend11qt_metacastEPKc@Base 0.7.90
 _ZN11GreenIsland6Server19NativeScreenBackend16staticMetaObjectE@Base 0.7.90
 _ZN11GreenIsland6Server19NativeScreenBackend17handleScreenAddedEP7QScreen@Base 0.7.90
 _ZN11GreenIsland6Server19NativeScreenBackend19handleScreenChangedEP7QScreenPNS0_6ScreenE@Base 0.7.90
 _ZN11GreenIsland6Server19NativeScreenBackend19handleScreenRemovedEP7QScreen@Base 0.7.90
 _ZN11GreenIsland6Server19NativeScreenBackend20acquireConfigurationEv@Base 0.7.90
 _ZN11GreenIsland6Server19NativeScreenBackendC1EP7QObject@Base 0.7.90
 _ZN11GreenIsland6Server19NativeScreenBackendC2EP7QObject@Base 0.7.90
 _ZN11GreenIsland6Server19QuickXdgSurfaceItem11qt_metacallEN11QMetaObject4CallEiPPv@Base 0.7.90
 _ZN11GreenIsland6Server19QuickXdgSurfaceItem11qt_metacastEPKc@Base 0.7.90
 _ZN11GreenIsland6Server19QuickXdgSurfaceItem11setMoveItemEP10QQuickItem@Base 0.7.90
 _ZN11GreenIsland6Server19QuickXdgSurfaceItem14mouseMoveEventEP11QMouseEvent@Base 0.7.90
 _ZN11GreenIsland6Server19QuickXdgSurfaceItem15handleStartMoveEP19QWaylandInputDevice@Base 0.7.90
 _ZN11GreenIsland6Server19QuickXdgSurfaceItem15moveItemChangedEv@Base 0.7.90
 _ZN11GreenIsland6Server19QuickXdgSurfaceItem15setShellSurfaceEPNS0_10XdgSurfaceE@Base 0.7.90
 _ZN11GreenIsland6Server19QuickXdgSurfaceItem16shelPopupChangedEv@Base 0.7.90
 _ZN11GreenIsland6Server19QuickXdgSurfaceItem16staticMetaObjectE@Base 0.7.90
 _ZN11GreenIsland6Server19QuickXdgSurfaceItem17componentCompleteEv@Base 0.7.90
 _ZN11GreenIsland6Server19QuickXdgSurfaceItem17handleStartResizeEP19QWaylandInputDeviceNS0_10XdgSurface10ResizeEdgeE@Base 0.7.90
 _ZN11GreenIsland6Server19QuickXdgSurfaceItem17mouseReleaseEventEP11QMouseEvent@Base 0.7.90
 _ZN11GreenIsland6Server19QuickXdgSurfaceItem19shellSurfaceChangedEv@Base 0.7.90
 _ZN11GreenIsland6Server19QuickXdgSurfaceItem19surfaceChangedEventEP15QWaylandSurfaceS3_@Base 0.7.90
 _ZN11GreenIsland6Server19QuickXdgSurfaceItem24adjustOffsetForNextFrameERK7QPointF@Base 0.7.90
 _ZN11GreenIsland6Server19QuickXdgSurfaceItemC1EP10QQuickItem@Base 0.7.90
 _ZN11GreenIsland6Server19QuickXdgSurfaceItemC1ERNS0_26QuickXdgSurfaceItemPrivateEP10QQuickItem@Base 0.7.90
 _ZN11GreenIsland6Server19QuickXdgSurfaceItemC2EP10QQuickItem@Base 0.7.90
 _ZN11GreenIsland6Server19QuickXdgSurfaceItemC2ERNS0_26QuickXdgSurfaceItemPrivateEP10QQuickItem@Base 0.7.90
 _ZN11GreenIsland6Server19ScreencasterPrivate10addRequestEP12QQuickWindowPNS0_10ScreencastE@Base 0.7.90
 _ZN11GreenIsland6Server19ScreencasterPrivate13removeRequestEP12QQuickWindowPNS0_10ScreencastE@Base 0.7.90
 _ZN11GreenIsland6Server19ScreencasterPrivate20screencaster_captureEPN15QtWaylandServer24greenisland_screencaster8ResourceEjP11wl_resource@Base 0.7.90
 _ZN11GreenIsland6Server19ScreencasterPrivate26screencaster_bind_resourceEPN15QtWaylandServer24greenisland_screencaster8ResourceE@Base 0.7.90
 _ZN11GreenIsland6Server19ScreencasterPrivate29screencaster_destroy_resourceEPN15QtWaylandServer24greenisland_screencaster8ResourceE@Base 0.7.90
 _ZN11GreenIsland6Server19ScreencasterPrivateC1Ev@Base 0.7.90
 _ZN11GreenIsland6Server19ScreencasterPrivateC2Ev@Base 0.7.90
 _ZN11GreenIsland6Server20ScreenshooterPrivate26screenshooter_capture_areaEPN15QtWaylandServer25greenisland_screenshooter8ResourceEjP8wl_array@Base 0.7.90
 _ZN11GreenIsland6Server20ScreenshooterPrivate28screenshooter_capture_activeEPN15QtWaylandServer25greenisland_screenshooter8ResourceEjP8wl_array@Base 0.7.90
 _ZN11GreenIsland6Server20ScreenshooterPrivate28screenshooter_capture_outputEPN15QtWaylandServer25greenisland_screenshooter8ResourceEjP11wl_resourceP8wl_array@Base 0.7.90
 _ZN11GreenIsland6Server20ScreenshooterPrivate29screenshooter_capture_surfaceEPN15QtWaylandServer25greenisland_screenshooter8ResourceEjP8wl_array@Base 0.7.90
 _ZN11GreenIsland6Server20ScreenshooterPrivateC1Ev@Base 0.7.90
 _ZN11GreenIsland6Server20ScreenshooterPrivateC2Ev@Base 0.7.90
 _ZN11GreenIsland6Server20WindowManagerPrivate12windowsCountEP16QQmlListPropertyINS0_12ClientWindowEE@Base 0.7.90
 _ZN11GreenIsland6Server20WindowManagerPrivate7windowsEv@Base 0.7.90
 _ZN11GreenIsland6Server20WindowManagerPrivate9windowsAtEP16QQmlListPropertyINS0_12ClientWindowEEi@Base 0.7.90
 _ZN11GreenIsland6Server22HomeApplicationPrivate19verifyXdgRuntimeDirEv@Base 0.7.90
 _ZN11GreenIsland6Server23ClientWindowViewPrivate14mouseMoveEventEP11QMouseEvent@Base 0.7.90
 _ZN11GreenIsland6Server23ClientWindowViewPrivate15mousePressEventEP11QMouseEvent@Base 0.7.90
 _ZN11GreenIsland6Server23ClientWindowViewPrivate17mouseReleaseEventEP11QMouseEvent@Base 0.7.90
 _ZN11GreenIsland6Server23ClientWindowViewPrivate19setShellSurfaceItemEP17QWaylandQuickItem@Base 0.7.90
 _ZN11GreenIsland6Server23ClientWindowViewPrivateC1Ev@Base 0.7.90
 _ZN11GreenIsland6Server23ClientWindowViewPrivateC2Ev@Base 0.7.90
 _ZN11GreenIsland6Server23ClientWindowViewPrivateD0Ev@Base 0.7.90
 _ZN11GreenIsland6Server23ClientWindowViewPrivateD1Ev@Base 0.7.90
 _ZN11GreenIsland6Server23ClientWindowViewPrivateD2Ev@Base 0.7.90
 _ZN11GreenIsland6Server24QuickXdgPopupItemPrivate22processMousePressEventEP11QMouseEvent@Base 0.7.90
 _ZN11GreenIsland6Server24QuickXdgPopupItemPrivateC1Ev@Base 0.7.90
 _ZN11GreenIsland6Server24QuickXdgPopupItemPrivateC2Ev@Base 0.7.90
 _ZN11GreenIsland6Server24QuickXdgPopupItemPrivateD0Ev@Base 0.7.90
 _ZN11GreenIsland6Server24QuickXdgPopupItemPrivateD1Ev@Base 0.7.90
 _ZN11GreenIsland6Server24QuickXdgPopupItemPrivateD2Ev@Base 0.7.90
 _ZN11GreenIsland6Server25ApplicationManagerPrivate14registerWindowEPNS0_12ClientWindowE@Base 0.7.90
 _ZN11GreenIsland6Server25ApplicationManagerPrivate15_q_appIdChangedEv@Base 0.7.90
 _ZN11GreenIsland6Server25ApplicationManagerPrivate16_q_activeChangedEv@Base 0.7.90
 _ZN11GreenIsland6Server25ApplicationManagerPrivate16unregisterWindowEPNS0_12ClientWindowE@Base 0.7.90
 _ZN11GreenIsland6Server25ApplicationManagerPrivate17applications_quitEPN15QtWaylandServer24greenisland_applications8ResourceERK7QString@Base 0.7.90
 _ZN11GreenIsland6Server25ApplicationManagerPrivateC1Ev@Base 0.7.90
 _ZN11GreenIsland6Server25ApplicationManagerPrivateC2Ev@Base 0.7.90
 _ZN11GreenIsland6Server6Keymap10setOptionsERK7QString@Base 0.7.90
 _ZN11GreenIsland6Server6Keymap10setVariantERK7QString@Base 0.7.90
 _ZN11GreenIsland6Server6Keymap11qt_metacallEN11QMetaObject4CallEiPPv@Base 0.7.90
 _ZN11GreenIsland6Server6Keymap11qt_metacastEPKc@Base 0.7.90
 _ZN11GreenIsland6Server6Keymap12modelChangedEv@Base 0.7.90
 _ZN11GreenIsland6Server6Keymap12rulesChangedEv@Base 0.7.90
 _ZN11GreenIsland6Server6Keymap13layoutChangedEv@Base 0.7.90
 _ZN11GreenIsland6Server6Keymap14optionsChangedEv@Base 0.7.90
 _ZN11GreenIsland6Server6Keymap14variantChangedEv@Base 0.7.90
 _ZN11GreenIsland6Server6Keymap16staticMetaObjectE@Base 0.7.90
 _ZN11GreenIsland6Server6Keymap8setModelERK7QString@Base 0.7.90
 _ZN11GreenIsland6Server6Keymap8setRulesERK7QString@Base 0.7.90
 _ZN11GreenIsland6Server6Keymap9setLayoutERK7QString@Base 0.7.90
 _ZN11GreenIsland6Server6KeymapC1EP7QObject@Base 0.7.90
 _ZN11GreenIsland6Server6KeymapC2EP7QObject@Base 0.7.90
 _ZN11GreenIsland6Server6Screen11qt_metacallEN11QMetaObject4CallEiPPv@Base 0.7.90
 _ZN11GreenIsland6Server6Screen11qt_metacastEPKc@Base 0.7.90
 _ZN11GreenIsland6Server6Screen11sizeChangedEv@Base 0.7.90
 _ZN11GreenIsland6Server6Screen15positionChangedEv@Base 0.7.90
 _ZN11GreenIsland6Server6Screen15subpixelChangedEv@Base 0.7.90
 _ZN11GreenIsland6Server6Screen16staticMetaObjectE@Base 0.7.90
 _ZN11GreenIsland6Server6Screen16transformChangedEv@Base 0.7.90
 _ZN11GreenIsland6Server6Screen18refreshRateChangedEv@Base 0.7.90
 _ZN11GreenIsland6Server6Screen18scaleFactorChangedEv@Base 0.7.90
 _ZN11GreenIsland6Server6Screen19physicalSizeChangedEv@Base 0.7.90
 _ZN11GreenIsland6Server6ScreenC1EP7QObject@Base 0.7.90
 _ZN11GreenIsland6Server6ScreenC2EP7QObject@Base 0.7.90
 _ZN11GreenIsland6Server8GtkShell10initializeEv@Base 0.7.90
 _ZN11GreenIsland6Server8GtkShell11qt_metacallEN11QMetaObject4CallEiPPv@Base 0.7.90
 _ZN11GreenIsland6Server8GtkShell11qt_metacastEPKc@Base 0.7.90
 _ZN11GreenIsland6Server8GtkShell13createSurfaceEP15QWaylandSurfaceP14QWaylandClientj@Base 0.7.90
 _ZN11GreenIsland6Server8GtkShell13interfaceNameEv@Base 0.7.90
 _ZN11GreenIsland6Server8GtkShell16staticMetaObjectE@Base 0.7.90
 _ZN11GreenIsland6Server8GtkShell9interfaceEv@Base 0.7.90
 _ZN11GreenIsland6Server8GtkShellC1EP18QWaylandCompositor@Base 0.7.90
 _ZN11GreenIsland6Server8GtkShellC1Ev@Base 0.7.90
 _ZN11GreenIsland6Server8GtkShellC2EP18QWaylandCompositor@Base 0.7.90
 _ZN11GreenIsland6Server8GtkShellC2Ev@Base 0.7.90
 _ZN11GreenIsland6Server8TaskItem11qt_metacallEN11QMetaObject4CallEiPPv@Base 0.7.90
 _ZN11GreenIsland6Server8TaskItem11qt_metacastEPKc@Base 0.7.90
 _ZN11GreenIsland6Server8TaskItem13interfaceNameEv@Base 0.7.90
 _ZN11GreenIsland6Server8TaskItem16staticMetaObjectE@Base 0.7.90
 _ZN11GreenIsland6Server8TaskItem9interfaceEv@Base 0.7.90
 _ZN11GreenIsland6Server8TaskItemC1Ev@Base 0.7.90
 _ZN11GreenIsland6Server8TaskItemC2Ev@Base 0.7.90
 _ZN11GreenIsland6Server8XdgPopup10initializeEPNS0_8XdgShellEP19QWaylandInputDeviceP15QWaylandSurfaceS7_P14QWaylandClientj@Base 0.7.90
 _ZN11GreenIsland6Server8XdgPopup10initializeEv@Base 0.7.90
 _ZN11GreenIsland6Server8XdgPopup11qt_metacallEN11QMetaObject4CallEiPPv@Base 0.7.90
 _ZN11GreenIsland6Server8XdgPopup11qt_metacastEPKc@Base 0.7.90
 _ZN11GreenIsland6Server8XdgPopup13interfaceNameEv@Base 0.7.90
 _ZN11GreenIsland6Server8XdgPopup13sendPopupDoneEv@Base 0.7.90
 _ZN11GreenIsland6Server8XdgPopup14surfaceChangedEv@Base 0.7.90
 _ZN11GreenIsland6Server8XdgPopup16staticMetaObjectE@Base 0.7.90
 _ZN11GreenIsland6Server8XdgPopup20parentSurfaceChangedEv@Base 0.7.90
 _ZN11GreenIsland6Server8XdgPopup9interfaceEv@Base 0.7.90
 _ZN11GreenIsland6Server8XdgPopupC1EPNS0_8XdgShellEP19QWaylandInputDeviceP15QWaylandSurfaceS7_P14QWaylandClientj@Base 0.7.90
 _ZN11GreenIsland6Server8XdgPopupC1Ev@Base 0.7.90
 _ZN11GreenIsland6Server8XdgPopupC2EPNS0_8XdgShellEP19QWaylandInputDeviceP15QWaylandSurfaceS7_P14QWaylandClientj@Base 0.7.90
 _ZN11GreenIsland6Server8XdgPopupC2Ev@Base 0.7.90
 _ZN11GreenIsland6Server8XdgPopupD0Ev@Base 0.7.90
 _ZN11GreenIsland6Server8XdgPopupD1Ev@Base 0.7.90
 _ZN11GreenIsland6Server8XdgPopupD2Ev@Base 0.7.90
 _ZN11GreenIsland6Server8XdgShell10initializeEv@Base 0.7.90
 _ZN11GreenIsland6Server8XdgShell11createPopupEP19QWaylandInputDeviceP15QWaylandSurfaceS5_RK6QPointP14QWaylandClientj@Base 0.7.90
 _ZN11GreenIsland6Server8XdgShell11qt_metacallEN11QMetaObject4CallEiPPv@Base 0.7.90
 _ZN11GreenIsland6Server8XdgShell11qt_metacastEPKc@Base 0.7.90
 _ZN11GreenIsland6Server8XdgShell13createSurfaceEP15QWaylandSurfaceP14QWaylandClientj@Base 0.7.90
 _ZN11GreenIsland6Server8XdgShell13interfaceNameEv@Base 0.7.90
 _ZN11GreenIsland6Server8XdgShell16staticMetaObjectE@Base 0.7.90
 _ZN11GreenIsland6Server8XdgShell9interfaceEv@Base 0.7.90
 _ZN11GreenIsland6Server8XdgShellC1EP18QWaylandCompositor@Base 0.7.90
 _ZN11GreenIsland6Server8XdgShellC1Ev@Base 0.7.90
 _ZN11GreenIsland6Server8XdgShellC2EP18QWaylandCompositor@Base 0.7.90
 _ZN11GreenIsland6Server8XdgShellC2Ev@Base 0.7.90
 _ZN11GreenIsland6Server8XdgShellD0Ev@Base 0.7.90
 _ZN11GreenIsland6Server8XdgShellD1Ev@Base 0.7.90
 _ZN11GreenIsland6Server8XdgShellD2Ev@Base 0.7.90
 _ZNK11GreenIsland6Server10GtkSurface10metaObjectEv@Base 0.7.90
 _ZNK11GreenIsland6Server10GtkSurface11appMenuPathEv@Base 0.7.90
 _ZNK11GreenIsland6Server10GtkSurface11menuBarPathEv@Base 0.7.90
 _ZNK11GreenIsland6Server10GtkSurface13appObjectPathEv@Base 0.7.90
 _ZNK11GreenIsland6Server10GtkSurface13uniqueBusNameEv@Base 0.7.90
 _ZNK11GreenIsland6Server10GtkSurface16windowObjectPathEv@Base 0.7.90
 _ZNK11GreenIsland6Server10GtkSurface5appIdEv@Base 0.7.90
 _ZNK11GreenIsland6Server10GtkSurface7surfaceEv@Base 0.7.90
 _ZNK11GreenIsland6Server10KeyBinding10metaObjectEv@Base 0.7.90
 _ZNK11GreenIsland6Server10KeyBinding4nameEv@Base 0.7.90
 _ZNK11GreenIsland6Server10KeyBinding7matchesEiRK6QFlagsIN2Qt16KeyboardModifierEE@Base 0.7.90
 _ZNK11GreenIsland6Server10KeyBinding8sequenceEv@Base 0.7.90
 _ZNK11GreenIsland6Server10Screencast10metaObjectEv@Base 0.7.90
 _ZNK11GreenIsland6Server10Screenshot10metaObjectEv@Base 0.7.90
 _ZNK11GreenIsland6Server10Screenshot11captureTypeEv@Base 0.7.90
 _ZNK11GreenIsland6Server10Screenshot7effectsEv@Base 0.7.90
 _ZNK11GreenIsland6Server10XdgSurface10metaObjectEv@Base 0.7.90
 _ZNK11GreenIsland6Server10XdgSurface11isMaximizedEv@Base 0.7.90
 _ZNK11GreenIsland6Server10XdgSurface12isFullScreenEv@Base 0.7.90
 _ZNK11GreenIsland6Server10XdgSurface14windowGeometryEv@Base 0.7.90
 _ZNK11GreenIsland6Server10XdgSurface5appIdEv@Base 0.7.90
 _ZNK11GreenIsland6Server10XdgSurface5titleEv@Base 0.7.90
 _ZNK11GreenIsland6Server10XdgSurface7surfaceEv@Base 0.7.90
 _ZNK11GreenIsland6Server10XdgSurface8isActiveEv@Base 0.7.90
 _ZNK11GreenIsland6Server11KeyBindings10metaObjectEv@Base 0.7.90
 _ZNK11GreenIsland6Server11KeyBindings11keyBindingsEv@Base 0.7.90
 _ZNK11GreenIsland6Server11QuickOutput10metaObjectEv@Base 0.7.90
 _ZNK11GreenIsland6Server11QuickOutput10powerStateEv@Base 0.7.90
 _ZNK11GreenIsland6Server11QuickOutput11hotSpotSizeEv@Base 0.7.90
 _ZNK11GreenIsland6Server11QuickOutput12nativeScreenEv@Base 0.7.90
 _ZNK11GreenIsland6Server11QuickOutput15hotSpotPushTimeEv@Base 0.7.90
 _ZNK11GreenIsland6Server11QuickOutput16hotSpotThresholdEv@Base 0.7.90
 _ZNK11GreenIsland6Server11TaskManager10metaObjectEv@Base 0.7.90
 _ZNK11GreenIsland6Server12ClientWindow10metaObjectEv@Base 0.7.90
 _ZNK11GreenIsland6Server12ClientWindow11isMaximizedEv@Base 0.7.90
 _ZNK11GreenIsland6Server12ClientWindow11isMinimizedEv@Base 0.7.90
 _ZNK11GreenIsland6Server12ClientWindow12isFullScreenEv@Base 0.7.90
 _ZNK11GreenIsland6Server12ClientWindow12parentWindowEv@Base 0.7.90
 _ZNK11GreenIsland6Server12ClientWindow14designedOutputEv@Base 0.7.90
 _ZNK11GreenIsland6Server12ClientWindow14windowGeometryEv@Base 0.7.90
 _ZNK11GreenIsland6Server12ClientWindow16taskIconGeometryEv@Base 0.7.90
 _ZNK11GreenIsland6Server12ClientWindow1xEv@Base 0.7.90
 _ZNK11GreenIsland6Server12ClientWindow1yEv@Base 0.7.90
 _ZNK11GreenIsland6Server12ClientWindow4typeEv@Base 0.7.90
 _ZNK11GreenIsland6Server12ClientWindow5appIdEv@Base 0.7.90
 _ZNK11GreenIsland6Server12ClientWindow5titleEv@Base 0.7.90
 _ZNK11GreenIsland6Server12ClientWindow7surfaceEv@Base 0.7.90
 _ZNK11GreenIsland6Server12ClientWindow8iconNameEv@Base 0.7.90
 _ZNK11GreenIsland6Server12ClientWindow8isActiveEv@Base 0.7.90
 _ZNK11GreenIsland6Server12ClientWindow8positionEv@Base 0.7.90
 _ZNK11GreenIsland6Server12ClientWindow9processIdEv@Base 0.7.90
 _ZNK11GreenIsland6Server12Screencaster10metaObjectEv@Base 0.7.90
 _ZNK11GreenIsland6Server13ScreenBackend10metaObjectEv@Base 0.7.90
 _ZNK11GreenIsland6Server13ScreenBackend7screensEv@Base 0.7.90
 _ZNK11GreenIsland6Server13ScreenManager10metaObjectEv@Base 0.7.90
 _ZNK11GreenIsland6Server13ScreenManager13primaryScreenEv@Base 0.7.90
 _ZNK11GreenIsland6Server13ScreenManager7indexOfEPNS0_6ScreenE@Base 0.7.90
 _ZNK11GreenIsland6Server13Screenshooter10metaObjectEv@Base 0.7.90
 _ZNK11GreenIsland6Server13WindowManager10compositorEv@Base 0.7.90
 _ZNK11GreenIsland6Server13WindowManager10metaObjectEv@Base 0.7.90
 _ZNK11GreenIsland6Server13WindowManager16windowsForOutputEP14QWaylandOutput@Base 0.7.90
 _ZNK11GreenIsland6Server14AbstractPlugin10metaObjectEv@Base 0.7.90
 _ZNK11GreenIsland6Server15HomeApplication10metaObjectEv@Base 0.7.90
 _ZNK11GreenIsland6Server15HomeApplication11rootObjectsEv@Base 0.7.90
 _ZNK11GreenIsland6Server15HomeApplication19screenConfigurationEv@Base 0.7.90
 _ZNK11GreenIsland6Server15HomeApplication21isNotificationEnabledEv@Base 0.7.90
 _ZNK11GreenIsland6Server16ClientWindowView10metaObjectEv@Base 0.7.90
 _ZNK11GreenIsland6Server16ClientWindowView15savedPropertiesEv@Base 0.7.90
 _ZNK11GreenIsland6Server16ClientWindowView16shellSurfaceItemEv@Base 0.7.90
 _ZNK11GreenIsland6Server16ClientWindowView6outputEv@Base 0.7.90
 _ZNK11GreenIsland6Server17FakeScreenBackend10metaObjectEv@Base 0.7.90
 _ZNK11GreenIsland6Server17QuickXdgPopupItem10metaObjectEv@Base 0.7.90
 _ZNK11GreenIsland6Server17QuickXdgPopupItem12shellSurfaceEv@Base 0.7.90
 _ZNK11GreenIsland6Server18ApplicationManager10metaObjectEv@Base 0.7.90
 _ZNK11GreenIsland6Server18ApplicationManager12isRegisteredERK7QString@Base 0.7.90
 _ZNK11GreenIsland6Server18CompositorSettings10compositorEv@Base 0.7.90
 _ZNK11GreenIsland6Server18CompositorSettings10metaObjectEv@Base 0.7.90
 _ZNK11GreenIsland6Server18CompositorSettings15windowActionKeyEv@Base 0.7.90
 _ZNK11GreenIsland6Server18CompositorSettings18keyboardRepeatRateEv@Base 0.7.90
 _ZNK11GreenIsland6Server18CompositorSettings19keyboardRepeatDelayEv@Base 0.7.90
 _ZNK11GreenIsland6Server18CompositorSettings6keymapEv@Base 0.7.90
 _ZNK11GreenIsland6Server18QuickScreenManager10metaObjectEv@Base 0.7.90
 _ZNK11GreenIsland6Server19ClientWindowPrivate14randomPositionEv@Base 0.7.90
 _ZNK11GreenIsland6Server19NativeScreenBackend10metaObjectEv@Base 0.7.90
 _ZNK11GreenIsland6Server19QuickXdgSurfaceItem10metaObjectEv@Base 0.7.90
 _ZNK11GreenIsland6Server19QuickXdgSurfaceItem12shellSurfaceEv@Base 0.7.90
 _ZNK11GreenIsland6Server19QuickXdgSurfaceItem8moveItemEv@Base 0.7.90
 _ZNK11GreenIsland6Server20WindowManagerPrivate16windowForSurfaceEP15QWaylandSurface@Base 0.7.90
 _ZNK11GreenIsland6Server6Keymap10metaObjectEv@Base 0.7.90
 _ZNK11GreenIsland6Server6Keymap5modelEv@Base 0.7.90
 _ZNK11GreenIsland6Server6Keymap5rulesEv@Base 0.7.90
 _ZNK11GreenIsland6Server6Keymap6layoutEv@Base 0.7.90
 _ZNK11GreenIsland6Server6Keymap7optionsEv@Base 0.7.90
 _ZNK11GreenIsland6Server6Keymap7variantEv@Base 0.7.90
 _ZNK11GreenIsland6Server6Screen10metaObjectEv@Base 0.7.90
 _ZNK11GreenIsland6Server6Screen11refreshRateEv@Base 0.7.90
 _ZNK11GreenIsland6Server6Screen11scaleFactorEv@Base 0.7.90
 _ZNK11GreenIsland6Server6Screen12manufacturerEv@Base 0.7.90
 _ZNK11GreenIsland6Server6Screen12physicalSizeEv@Base 0.7.90
 _ZNK11GreenIsland6Server6Screen4sizeEv@Base 0.7.90
 _ZNK11GreenIsland6Server6Screen5modelEv@Base 0.7.90
 _ZNK11GreenIsland6Server6Screen6screenEv@Base 0.7.90
 _ZNK11GreenIsland6Server6Screen8positionEv@Base 0.7.90
 _ZNK11GreenIsland6Server6Screen8subpixelEv@Base 0.7.90
 _ZNK11GreenIsland6Server6Screen9transformEv@Base 0.7.90
 _ZNK11GreenIsland6Server8GtkShell10metaObjectEv@Base 0.7.90
 _ZNK11GreenIsland6Server8TaskItem10metaObjectEv@Base 0.7.90
 _ZNK11GreenIsland6Server8XdgPopup10metaObjectEv@Base 0.7.90
 _ZNK11GreenIsland6Server8XdgPopup13parentSurfaceEv@Base 0.7.90
 _ZNK11GreenIsland6Server8XdgPopup7surfaceEv@Base 0.7.90
 _ZNK11GreenIsland6Server8XdgShell10metaObjectEv@Base 0.7.90
 (optional=templinst)_ZNK25QWaylandExtensionTemplateIN11GreenIsland6Server10GtkSurfaceEE18extensionInterfaceEv@Base 0.7.90
 (optional=templinst)_ZNK25QWaylandExtensionTemplateIN11GreenIsland6Server10ScreencastEE18extensionInterfaceEv@Base 0.7.90
 (optional=templinst)_ZNK25QWaylandExtensionTemplateIN11GreenIsland6Server10ScreenshotEE18extensionInterfaceEv@Base 0.7.90
 (optional=templinst)_ZNK25QWaylandExtensionTemplateIN11GreenIsland6Server10XdgSurfaceEE18extensionInterfaceEv@Base 0.7.90
 (optional=templinst)_ZNK25QWaylandExtensionTemplateIN11GreenIsland6Server11TaskManagerEE18extensionInterfaceEv@Base 0.7.90
 (optional=templinst)_ZNK25QWaylandExtensionTemplateIN11GreenIsland6Server12ScreencasterEE18extensionInterfaceEv@Base 0.7.90
 (optional=templinst)_ZNK25QWaylandExtensionTemplateIN11GreenIsland6Server13ScreenshooterEE18extensionInterfaceEv@Base 0.7.90
 (optional=templinst)_ZNK25QWaylandExtensionTemplateIN11GreenIsland6Server18ApplicationManagerEE18extensionInterfaceEv@Base 0.7.90
 (optional=templinst)_ZNK25QWaylandExtensionTemplateIN11GreenIsland6Server8GtkShellEE18extensionInterfaceEv@Base 0.7.90
 (optional=templinst)_ZNK25QWaylandExtensionTemplateIN11GreenIsland6Server8TaskItemEE18extensionInterfaceEv@Base 0.7.90
 (optional=templinst)_ZNK25QWaylandExtensionTemplateIN11GreenIsland6Server8XdgPopupEE18extensionInterfaceEv@Base 0.7.90
 (optional=templinst)_ZNK25QWaylandExtensionTemplateIN11GreenIsland6Server8XdgShellEE18extensionInterfaceEv@Base 0.7.90
 _ZTI24QWaylandExtensionPrivate@Base 0.7.90
 _ZTI25QWaylandExtensionTemplateIN11GreenIsland6Server10GtkSurfaceEE@Base 0.7.90
 _ZTI25QWaylandExtensionTemplateIN11GreenIsland6Server10ScreencastEE@Base 0.7.90
 _ZTI25QWaylandExtensionTemplateIN11GreenIsland6Server10ScreenshotEE@Base 0.7.90
 _ZTI25QWaylandExtensionTemplateIN11GreenIsland6Server10XdgSurfaceEE@Base 0.7.90
 _ZTI25QWaylandExtensionTemplateIN11GreenIsland6Server11TaskManagerEE@Base 0.7.90
 _ZTI25QWaylandExtensionTemplateIN11GreenIsland6Server12ScreencasterEE@Base 0.7.90
 _ZTI25QWaylandExtensionTemplateIN11GreenIsland6Server13ScreenshooterEE@Base 0.7.90
 _ZTI25QWaylandExtensionTemplateIN11GreenIsland6Server18ApplicationManagerEE@Base 0.7.90
 _ZTI25QWaylandExtensionTemplateIN11GreenIsland6Server8GtkShellEE@Base 0.7.90
 _ZTI25QWaylandExtensionTemplateIN11GreenIsland6Server8TaskItemEE@Base 0.7.90
 _ZTI25QWaylandExtensionTemplateIN11GreenIsland6Server8XdgPopupEE@Base 0.7.90
 _ZTI25QWaylandExtensionTemplateIN11GreenIsland6Server8XdgShellEE@Base 0.7.90
 _ZTI32QWaylandExtensionTemplatePrivate@Base 0.7.90
 _ZTIN11GreenIsland6Server10GtkSurfaceE@Base 0.7.90
 _ZTIN11GreenIsland6Server10KeyBindingE@Base 0.7.90
 _ZTIN11GreenIsland6Server10ScreencastE@Base 0.7.90
 _ZTIN11GreenIsland6Server10ScreenshotE@Base 0.7.90
 _ZTIN11GreenIsland6Server10XdgSurfaceE@Base 0.7.90
 _ZTIN11GreenIsland6Server11KeyBindingsE@Base 0.7.90
 _ZTIN11GreenIsland6Server11QuickOutputE@Base 0.7.90
 _ZTIN11GreenIsland6Server11TaskManagerE@Base 0.7.90
 _ZTIN11GreenIsland6Server12ClientWindowE@Base 0.7.90
 _ZTIN11GreenIsland6Server12ScreencasterE@Base 0.7.90
 _ZTIN11GreenIsland6Server13KeymapPrivateE@Base 0.7.90
 _ZTIN11GreenIsland6Server13ScreenBackendE@Base 0.7.90
 _ZTIN11GreenIsland6Server13ScreenManagerE@Base 0.7.90
 _ZTIN11GreenIsland6Server13ScreenPrivateE@Base 0.7.90
 _ZTIN11GreenIsland6Server13ScreenshooterE@Base 0.7.90
 _ZTIN11GreenIsland6Server13WindowManagerE@Base 0.7.90
 _ZTIN11GreenIsland6Server14AbstractPluginE@Base 0.7.90
 _ZTIN11GreenIsland6Server15GtkShellPrivateE@Base 0.7.90
 _ZTIN11GreenIsland6Server15HomeApplicationE@Base 0.7.90
 _ZTIN11GreenIsland6Server15TaskItemPrivateE@Base 0.7.90
 _ZTIN11GreenIsland6Server15XdgPopupPrivateE@Base 0.7.90
 _ZTIN11GreenIsland6Server15XdgShellPrivateE@Base 0.7.90
 _ZTIN11GreenIsland6Server16ClientWindowViewE@Base 0.7.90
 _ZTIN11GreenIsland6Server17FakeScreenBackendE@Base 0.7.90
 _ZTIN11GreenIsland6Server17GtkSurfacePrivateE@Base 0.7.90
 _ZTIN11GreenIsland6Server17KeyBindingPrivateE@Base 0.7.90
 _ZTIN11GreenIsland6Server17QuickXdgPopupItemE@Base 0.7.90
 _ZTIN11GreenIsland6Server17ScreencastPrivateE@Base 0.7.90
 _ZTIN11GreenIsland6Server17ScreenshotPrivateE@Base 0.7.90
 _ZTIN11GreenIsland6Server17XdgSurfacePrivateE@Base 0.7.90
 _ZTIN11GreenIsland6Server18ApplicationManagerE@Base 0.7.90
 _ZTIN11GreenIsland6Server18CompositorSettingsE@Base 0.7.90
 _ZTIN11GreenIsland6Server18KeyBindingsPrivateE@Base 0.7.90
 _ZTIN11GreenIsland6Server18QuickScreenManagerE@Base 0.7.90
 _ZTIN11GreenIsland6Server18TaskManagerPrivateE@Base 0.7.90
 _ZTIN11GreenIsland6Server19ClientWindowPrivateE@Base 0.7.90
 _ZTIN11GreenIsland6Server19NativeScreenBackendE@Base 0.7.90
 _ZTIN11GreenIsland6Server19QuickXdgSurfaceItemE@Base 0.7.90
 _ZTIN11GreenIsland6Server19ScreencasterPrivateE@Base 0.7.90
 _ZTIN11GreenIsland6Server20ScreenBackendPrivateE@Base 0.7.90
 _ZTIN11GreenIsland6Server20ScreenManagerPrivateE@Base 0.7.90
 _ZTIN11GreenIsland6Server20ScreenshooterPrivateE@Base 0.7.90
 _ZTIN11GreenIsland6Server20WindowManagerPrivateE@Base 0.7.90
 _ZTIN11GreenIsland6Server22HomeApplicationPrivateE@Base 0.7.90
 _ZTIN11GreenIsland6Server23ClientWindowViewPrivateE@Base 0.7.90
 _ZTIN11GreenIsland6Server24QuickXdgPopupItemPrivateE@Base 0.7.90
 _ZTIN11GreenIsland6Server25ApplicationManagerPrivateE@Base 0.7.90
 _ZTIN11GreenIsland6Server26QuickXdgSurfaceItemPrivateE@Base 0.7.90
 _ZTIN11GreenIsland6Server6KeymapE@Base 0.7.90
 _ZTIN11GreenIsland6Server6ScreenE@Base 0.7.90
 _ZTIN11GreenIsland6Server8GtkShellE@Base 0.7.90
 _ZTIN11GreenIsland6Server8TaskItemE@Base 0.7.90
 _ZTIN11GreenIsland6Server8XdgPopupE@Base 0.7.90
 _ZTIN11GreenIsland6Server8XdgShellE@Base 0.7.90
 _ZTS24QWaylandExtensionPrivate@Base 0.7.90
 _ZTS25QWaylandExtensionTemplateIN11GreenIsland6Server10GtkSurfaceEE@Base 0.7.90
 _ZTS25QWaylandExtensionTemplateIN11GreenIsland6Server10ScreencastEE@Base 0.7.90
 _ZTS25QWaylandExtensionTemplateIN11GreenIsland6Server10ScreenshotEE@Base 0.7.90
 _ZTS25QWaylandExtensionTemplateIN11GreenIsland6Server10XdgSurfaceEE@Base 0.7.90
 _ZTS25QWaylandExtensionTemplateIN11GreenIsland6Server11TaskManagerEE@Base 0.7.90
 _ZTS25QWaylandExtensionTemplateIN11GreenIsland6Server12ScreencasterEE@Base 0.7.90
 _ZTS25QWaylandExtensionTemplateIN11GreenIsland6Server13ScreenshooterEE@Base 0.7.90
 _ZTS25QWaylandExtensionTemplateIN11GreenIsland6Server18ApplicationManagerEE@Base 0.7.90
 _ZTS25QWaylandExtensionTemplateIN11GreenIsland6Server8GtkShellEE@Base 0.7.90
 _ZTS25QWaylandExtensionTemplateIN11GreenIsland6Server8TaskItemEE@Base 0.7.90
 _ZTS25QWaylandExtensionTemplateIN11GreenIsland6Server8XdgPopupEE@Base 0.7.90
 _ZTS25QWaylandExtensionTemplateIN11GreenIsland6Server8XdgShellEE@Base 0.7.90
 _ZTS32QWaylandExtensionTemplatePrivate@Base 0.7.90
 _ZTSN11GreenIsland6Server10GtkSurfaceE@Base 0.7.90
 _ZTSN11GreenIsland6Server10KeyBindingE@Base 0.7.90
 _ZTSN11GreenIsland6Server10ScreencastE@Base 0.7.90
 _ZTSN11GreenIsland6Server10ScreenshotE@Base 0.7.90
 _ZTSN11GreenIsland6Server10XdgSurfaceE@Base 0.7.90
 _ZTSN11GreenIsland6Server11KeyBindingsE@Base 0.7.90
 _ZTSN11GreenIsland6Server11QuickOutputE@Base 0.7.90
 _ZTSN11GreenIsland6Server11TaskManagerE@Base 0.7.90
 _ZTSN11GreenIsland6Server12ClientWindowE@Base 0.7.90
 _ZTSN11GreenIsland6Server12ScreencasterE@Base 0.7.90
 _ZTSN11GreenIsland6Server13KeymapPrivateE@Base 0.7.90
 _ZTSN11GreenIsland6Server13ScreenBackendE@Base 0.7.90
 _ZTSN11GreenIsland6Server13ScreenManagerE@Base 0.7.90
 _ZTSN11GreenIsland6Server13ScreenPrivateE@Base 0.7.90
 _ZTSN11GreenIsland6Server13ScreenshooterE@Base 0.7.90
 _ZTSN11GreenIsland6Server13WindowManagerE@Base 0.7.90
 _ZTSN11GreenIsland6Server14AbstractPluginE@Base 0.7.90
 _ZTSN11GreenIsland6Server15GtkShellPrivateE@Base 0.7.90
 _ZTSN11GreenIsland6Server15HomeApplicationE@Base 0.7.90
 _ZTSN11GreenIsland6Server15TaskItemPrivateE@Base 0.7.90
 _ZTSN11GreenIsland6Server15XdgPopupPrivateE@Base 0.7.90
 _ZTSN11GreenIsland6Server15XdgShellPrivateE@Base 0.7.90
 _ZTSN11GreenIsland6Server16ClientWindowViewE@Base 0.7.90
 _ZTSN11GreenIsland6Server17FakeScreenBackendE@Base 0.7.90
 _ZTSN11GreenIsland6Server17GtkSurfacePrivateE@Base 0.7.90
 _ZTSN11GreenIsland6Server17KeyBindingPrivateE@Base 0.7.90
 _ZTSN11GreenIsland6Server17QuickXdgPopupItemE@Base 0.7.90
 _ZTSN11GreenIsland6Server17ScreencastPrivateE@Base 0.7.90
 _ZTSN11GreenIsland6Server17ScreenshotPrivateE@Base 0.7.90
 _ZTSN11GreenIsland6Server17XdgSurfacePrivateE@Base 0.7.90
 _ZTSN11GreenIsland6Server18ApplicationManagerE@Base 0.7.90
 _ZTSN11GreenIsland6Server18CompositorSettingsE@Base 0.7.90
 _ZTSN11GreenIsland6Server18KeyBindingsPrivateE@Base 0.7.90
 _ZTSN11GreenIsland6Server18QuickScreenManagerE@Base 0.7.90
 _ZTSN11GreenIsland6Server18TaskManagerPrivateE@Base 0.7.90
 _ZTSN11GreenIsland6Server19ClientWindowPrivateE@Base 0.7.90
 _ZTSN11GreenIsland6Server19NativeScreenBackendE@Base 0.7.90
 _ZTSN11GreenIsland6Server19QuickXdgSurfaceItemE@Base 0.7.90
 _ZTSN11GreenIsland6Server19ScreencasterPrivateE@Base 0.7.90
 _ZTSN11GreenIsland6Server20ScreenBackendPrivateE@Base 0.7.90
 _ZTSN11GreenIsland6Server20ScreenManagerPrivateE@Base 0.7.90
 _ZTSN11GreenIsland6Server20ScreenshooterPrivateE@Base 0.7.90
 _ZTSN11GreenIsland6Server20WindowManagerPrivateE@Base 0.7.90
 _ZTSN11GreenIsland6Server22HomeApplicationPrivateE@Base 0.7.90
 _ZTSN11GreenIsland6Server23ClientWindowViewPrivateE@Base 0.7.90
 _ZTSN11GreenIsland6Server24QuickXdgPopupItemPrivateE@Base 0.7.90
 _ZTSN11GreenIsland6Server25ApplicationManagerPrivateE@Base 0.7.90
 _ZTSN11GreenIsland6Server26QuickXdgSurfaceItemPrivateE@Base 0.7.90
 _ZTSN11GreenIsland6Server6KeymapE@Base 0.7.90
 _ZTSN11GreenIsland6Server6ScreenE@Base 0.7.90
 _ZTSN11GreenIsland6Server8GtkShellE@Base 0.7.90
 _ZTSN11GreenIsland6Server8TaskItemE@Base 0.7.90
 _ZTSN11GreenIsland6Server8XdgPopupE@Base 0.7.90
 _ZTSN11GreenIsland6Server8XdgShellE@Base 0.7.90
 _ZTV24QWaylandExtensionPrivate@Base 0.7.90
 _ZTV25QWaylandExtensionTemplateIN11GreenIsland6Server10GtkSurfaceEE@Base 0.7.90
 _ZTV25QWaylandExtensionTemplateIN11GreenIsland6Server10ScreencastEE@Base 0.7.90
 _ZTV25QWaylandExtensionTemplateIN11GreenIsland6Server10ScreenshotEE@Base 0.7.90
 _ZTV25QWaylandExtensionTemplateIN11GreenIsland6Server10XdgSurfaceEE@Base 0.7.90
 _ZTV25QWaylandExtensionTemplateIN11GreenIsland6Server11TaskManagerEE@Base 0.7.90
 _ZTV25QWaylandExtensionTemplateIN11GreenIsland6Server12ScreencasterEE@Base 0.7.90
 _ZTV25QWaylandExtensionTemplateIN11GreenIsland6Server13ScreenshooterEE@Base 0.7.90
 _ZTV25QWaylandExtensionTemplateIN11GreenIsland6Server18ApplicationManagerEE@Base 0.7.90
 _ZTV25QWaylandExtensionTemplateIN11GreenIsland6Server8GtkShellEE@Base 0.7.90
 _ZTV25QWaylandExtensionTemplateIN11GreenIsland6Server8TaskItemEE@Base 0.7.90
 _ZTV25QWaylandExtensionTemplateIN11GreenIsland6Server8XdgPopupEE@Base 0.7.90
 _ZTV25QWaylandExtensionTemplateIN11GreenIsland6Server8XdgShellEE@Base 0.7.90
 _ZTV32QWaylandExtensionTemplatePrivate@Base 0.7.90
 _ZTVN11GreenIsland6Server10GtkSurfaceE@Base 0.7.90
 _ZTVN11GreenIsland6Server10KeyBindingE@Base 0.7.90
 _ZTVN11GreenIsland6Server10ScreencastE@Base 0.7.90
 _ZTVN11GreenIsland6Server10ScreenshotE@Base 0.7.90
 _ZTVN11GreenIsland6Server10XdgSurfaceE@Base 0.7.90
 _ZTVN11GreenIsland6Server11KeyBindingsE@Base 0.7.90
 _ZTVN11GreenIsland6Server11QuickOutputE@Base 0.7.90
 _ZTVN11GreenIsland6Server11TaskManagerE@Base 0.7.90
 _ZTVN11GreenIsland6Server12ClientWindowE@Base 0.7.90
 _ZTVN11GreenIsland6Server12ScreencasterE@Base 0.7.90
 _ZTVN11GreenIsland6Server13KeymapPrivateE@Base 0.7.90
 _ZTVN11GreenIsland6Server13ScreenBackendE@Base 0.7.90
 _ZTVN11GreenIsland6Server13ScreenManagerE@Base 0.7.90
 _ZTVN11GreenIsland6Server13ScreenPrivateE@Base 0.7.90
 _ZTVN11GreenIsland6Server13ScreenshooterE@Base 0.7.90
 _ZTVN11GreenIsland6Server13WindowManagerE@Base 0.7.90
 _ZTVN11GreenIsland6Server14AbstractPluginE@Base 0.7.90
 _ZTVN11GreenIsland6Server15GtkShellPrivateE@Base 0.7.90
 _ZTVN11GreenIsland6Server15HomeApplicationE@Base 0.7.90
 _ZTVN11GreenIsland6Server15TaskItemPrivateE@Base 0.7.90
 _ZTVN11GreenIsland6Server15XdgPopupPrivateE@Base 0.7.90
 _ZTVN11GreenIsland6Server15XdgShellPrivateE@Base 0.7.90
 _ZTVN11GreenIsland6Server16ClientWindowViewE@Base 0.7.90
 _ZTVN11GreenIsland6Server17FakeScreenBackendE@Base 0.7.90
 _ZTVN11GreenIsland6Server17GtkSurfacePrivateE@Base 0.7.90
 _ZTVN11GreenIsland6Server17KeyBindingPrivateE@Base 0.7.90
 _ZTVN11GreenIsland6Server17QuickXdgPopupItemE@Base 0.7.90
 _ZTVN11GreenIsland6Server17ScreencastPrivateE@Base 0.7.90
 _ZTVN11GreenIsland6Server17ScreenshotPrivateE@Base 0.7.90
 _ZTVN11GreenIsland6Server17XdgSurfacePrivateE@Base 0.7.90
 _ZTVN11GreenIsland6Server18ApplicationManagerE@Base 0.7.90
 _ZTVN11GreenIsland6Server18CompositorSettingsE@Base 0.7.90
 _ZTVN11GreenIsland6Server18KeyBindingsPrivateE@Base 0.7.90
 _ZTVN11GreenIsland6Server18QuickScreenManagerE@Base 0.7.90
 _ZTVN11GreenIsland6Server18TaskManagerPrivateE@Base 0.7.90
 _ZTVN11GreenIsland6Server19ClientWindowPrivateE@Base 0.7.90
 _ZTVN11GreenIsland6Server19NativeScreenBackendE@Base 0.7.90
 _ZTVN11GreenIsland6Server19QuickXdgSurfaceItemE@Base 0.7.90
 _ZTVN11GreenIsland6Server19ScreencasterPrivateE@Base 0.7.90
 _ZTVN11GreenIsland6Server20ScreenBackendPrivateE@Base 0.7.90
 _ZTVN11GreenIsland6Server20ScreenManagerPrivateE@Base 0.7.90
 _ZTVN11GreenIsland6Server20ScreenshooterPrivateE@Base 0.7.90
 _ZTVN11GreenIsland6Server20WindowManagerPrivateE@Base 0.7.90
 _ZTVN11GreenIsland6Server22HomeApplicationPrivateE@Base 0.7.90
 _ZTVN11GreenIsland6Server23ClientWindowViewPrivateE@Base 0.7.90
 _ZTVN11GreenIsland6Server24QuickXdgPopupItemPrivateE@Base 0.7.90
 _ZTVN11GreenIsland6Server25ApplicationManagerPrivateE@Base 0.7.90
 _ZTVN11GreenIsland6Server26QuickXdgSurfaceItemPrivateE@Base 0.7.90
 _ZTVN11GreenIsland6Server6KeymapE@Base 0.7.90
 _ZTVN11GreenIsland6Server6ScreenE@Base 0.7.90
 _ZTVN11GreenIsland6Server8GtkShellE@Base 0.7.90
 _ZTVN11GreenIsland6Server8TaskItemE@Base 0.7.90
 _ZTVN11GreenIsland6Server8XdgPopupE@Base 0.7.90
 _ZTVN11GreenIsland6Server8XdgShellE@Base 0.7.90
 greenisland_applications_interface@Base 0.7.90
 greenisland_screencast_interface@Base 0.7.90
 greenisland_screencaster_interface@Base 0.7.90
 greenisland_screenshooter_interface@Base 0.7.90
 greenisland_screenshot_interface@Base 0.7.90
 greenisland_window_interface@Base 0.7.90
 greenisland_windows_interface@Base 0.7.90
 gtk_shell_interface@Base 0.7.90
 gtk_surface_interface@Base 0.7.90
 (c++)"non-virtual thunk to GreenIsland::Server::ApplicationManagerPrivate::applications_quit(QtWaylandServer::greenisland_applications::Resource*, QString const&)@Base" 0.7.90
 (c++)"non-virtual thunk to GreenIsland::Server::CompositorSettings::classBegin()@Base" 0.7.90
 (c++)"non-virtual thunk to GreenIsland::Server::CompositorSettings::componentComplete()@Base" 0.7.90
 (c++)"non-virtual thunk to GreenIsland::Server::GtkShellPrivate::shell_bind_resource(QtWaylandServer::gtk_shell::Resource*)@Base" 0.7.90
 (c++)"non-virtual thunk to GreenIsland::Server::GtkShellPrivate::shell_destroy_resource(QtWaylandServer::gtk_shell::Resource*)@Base" 0.7.90
 (c++)"non-virtual thunk to GreenIsland::Server::GtkShellPrivate::shell_get_gtk_surface(QtWaylandServer::gtk_shell::Resource*, unsigned int, wl_resource*)@Base" 0.7.90
 (c++)"non-virtual thunk to GreenIsland::Server::GtkSurfacePrivate::surface_destroy_resource(QtWaylandServer::gtk_surface::Resource*)@Base" 0.7.90
 (c++)"non-virtual thunk to GreenIsland::Server::GtkSurfacePrivate::surface_set_dbus_properties(QtWaylandServer::gtk_surface::Resource*, QString const&, QString const&, QString const&, QString const&, QString const&, QString const&)@Base" 0.7.90
 (c++)"non-virtual thunk to GreenIsland::Server::GtkSurfacePrivate::surface_set_modal(QtWaylandServer::gtk_surface::Resource*)@Base" 0.7.90
 (c++)"non-virtual thunk to GreenIsland::Server::GtkSurfacePrivate::surface_unset_modal(QtWaylandServer::gtk_surface::Resource*)@Base" 0.7.90
 (c++)"non-virtual thunk to GreenIsland::Server::GtkSurfacePrivate::~GtkSurfacePrivate()@Base" 0.7.90
 (c++)"non-virtual thunk to GreenIsland::Server::QuickScreenManager::classBegin()@Base" 0.7.90
 (c++)"non-virtual thunk to GreenIsland::Server::QuickScreenManager::componentComplete()@Base" 0.7.90
 (c++)"non-virtual thunk to GreenIsland::Server::QuickXdgPopupItem::componentComplete()@Base" 0.7.90
 (c++)"non-virtual thunk to GreenIsland::Server::QuickXdgSurfaceItem::componentComplete()@Base" 0.7.90
 (c++)"non-virtual thunk to GreenIsland::Server::ScreencastPrivate::screencast_destroy(QtWaylandServer::greenisland_screencast::Resource*)@Base" 0.7.90
 (c++)"non-virtual thunk to GreenIsland::Server::ScreencastPrivate::screencast_record(QtWaylandServer::greenisland_screencast::Resource*, wl_resource*)@Base" 0.7.90
 (c++)"non-virtual thunk to GreenIsland::Server::ScreencasterPrivate::screencaster_bind_resource(QtWaylandServer::greenisland_screencaster::Resource*)@Base" 0.7.90
 (c++)"non-virtual thunk to GreenIsland::Server::ScreencasterPrivate::screencaster_capture(QtWaylandServer::greenisland_screencaster::Resource*, unsigned int, wl_resource*)@Base" 0.7.90
 (c++)"non-virtual thunk to GreenIsland::Server::ScreencasterPrivate::screencaster_destroy_resource(QtWaylandServer::greenisland_screencaster::Resource*)@Base" 0.7.90
 (c++)"non-virtual thunk to GreenIsland::Server::ScreenshooterPrivate::screenshooter_capture_active(QtWaylandServer::greenisland_screenshooter::Resource*, unsigned int, wl_array*)@Base" 0.7.90
 (c++)"non-virtual thunk to GreenIsland::Server::ScreenshooterPrivate::screenshooter_capture_area(QtWaylandServer::greenisland_screenshooter::Resource*, unsigned int, wl_array*)@Base" 0.7.90
 (c++)"non-virtual thunk to GreenIsland::Server::ScreenshooterPrivate::screenshooter_capture_output(QtWaylandServer::greenisland_screenshooter::Resource*, unsigned int, wl_resource*, wl_array*)@Base" 0.7.90
 (c++)"non-virtual thunk to GreenIsland::Server::ScreenshooterPrivate::screenshooter_capture_surface(QtWaylandServer::greenisland_screenshooter::Resource*, unsigned int, wl_array*)@Base" 0.7.90
 (c++)"non-virtual thunk to GreenIsland::Server::ScreenshotPrivate::screenshot_destroy(QtWaylandServer::greenisland_screenshot::Resource*)@Base" 0.7.90
 (c++)"non-virtual thunk to GreenIsland::Server::ScreenshotPrivate::screenshot_record(QtWaylandServer::greenisland_screenshot::Resource*, wl_resource*)@Base" 0.7.90
 (c++)"non-virtual thunk to GreenIsland::Server::TaskManagerPrivate::windows_bind_resource(QtWaylandServer::greenisland_windows::Resource*)@Base" 0.7.90
 (c++)"non-virtual thunk to GreenIsland::Server::TaskManagerPrivate::~TaskManagerPrivate()@Base" 0.7.90
 (c++)"non-virtual thunk to GreenIsland::Server::XdgPopupPrivate::popup_destroy(QtWaylandServer::xdg_popup::Resource*)@Base" 0.7.90
 (c++)"non-virtual thunk to GreenIsland::Server::XdgPopupPrivate::popup_destroy_resource(QtWaylandServer::xdg_popup::Resource*)@Base" 0.7.90
 (c++)"non-virtual thunk to GreenIsland::Server::XdgPopupPrivate::~XdgPopupPrivate()@Base" 0.7.90
 (c++)"non-virtual thunk to GreenIsland::Server::XdgShellPrivate::shell_destroy(QtWaylandServer::xdg_shell::Resource*)@Base" 0.7.90
 (c++)"non-virtual thunk to GreenIsland::Server::XdgShellPrivate::shell_get_xdg_popup(QtWaylandServer::xdg_shell::Resource*, unsigned int, wl_resource*, wl_resource*, wl_resource*, unsigned int, int, int)@Base" 0.7.90
 (c++)"non-virtual thunk to GreenIsland::Server::XdgShellPrivate::shell_get_xdg_surface(QtWaylandServer::xdg_shell::Resource*, unsigned int, wl_resource*)@Base" 0.7.90
 (c++)"non-virtual thunk to GreenIsland::Server::XdgShellPrivate::shell_pong(QtWaylandServer::xdg_shell::Resource*, unsigned int)@Base" 0.7.90
 (c++)"non-virtual thunk to GreenIsland::Server::XdgShellPrivate::shell_use_unstable_version(QtWaylandServer::xdg_shell::Resource*, int)@Base" 0.7.90
 (c++)"non-virtual thunk to GreenIsland::Server::XdgSurfacePrivate::surface_ack_configure(QtWaylandServer::xdg_surface::Resource*, unsigned int)@Base" 0.7.90
 (c++)"non-virtual thunk to GreenIsland::Server::XdgSurfacePrivate::surface_destroy(QtWaylandServer::xdg_surface::Resource*)@Base" 0.7.90
 (c++)"non-virtual thunk to GreenIsland::Server::XdgSurfacePrivate::surface_destroy_resource(QtWaylandServer::xdg_surface::Resource*)@Base" 0.7.90
 (c++)"non-virtual thunk to GreenIsland::Server::XdgSurfacePrivate::surface_move(QtWaylandServer::xdg_surface::Resource*, wl_resource*, unsigned int)@Base" 0.7.90
 (c++)"non-virtual thunk to GreenIsland::Server::XdgSurfacePrivate::surface_resize(QtWaylandServer::xdg_surface::Resource*, wl_resource*, unsigned int, unsigned int)@Base" 0.7.90
 (c++)"non-virtual thunk to GreenIsland::Server::XdgSurfacePrivate::surface_set_app_id(QtWaylandServer::xdg_surface::Resource*, QString const&)@Base" 0.7.90
 (c++)"non-virtual thunk to GreenIsland::Server::XdgSurfacePrivate::surface_set_fullscreen(QtWaylandServer::xdg_surface::Resource*, wl_resource*)@Base" 0.7.90
 (c++)"non-virtual thunk to GreenIsland::Server::XdgSurfacePrivate::surface_set_maximized(QtWaylandServer::xdg_surface::Resource*)@Base" 0.7.90
 (c++)"non-virtual thunk to GreenIsland::Server::XdgSurfacePrivate::surface_set_minimized(QtWaylandServer::xdg_surface::Resource*)@Base" 0.7.90
 (c++)"non-virtual thunk to GreenIsland::Server::XdgSurfacePrivate::surface_set_parent(QtWaylandServer::xdg_surface::Resource*, wl_resource*)@Base" 0.7.90
 (c++)"non-virtual thunk to GreenIsland::Server::XdgSurfacePrivate::surface_set_title(QtWaylandServer::xdg_surface::Resource*, QString const&)@Base" 0.7.90
 (c++)"non-virtual thunk to GreenIsland::Server::XdgSurfacePrivate::surface_set_window_geometry(QtWaylandServer::xdg_surface::Resource*, int, int, int, int)@Base" 0.7.90
 (c++)"non-virtual thunk to GreenIsland::Server::XdgSurfacePrivate::surface_show_window_menu(QtWaylandServer::xdg_surface::Resource*, wl_resource*, unsigned int, int, int)@Base" 0.7.90
 (c++)"non-virtual thunk to GreenIsland::Server::XdgSurfacePrivate::surface_unset_fullscreen(QtWaylandServer::xdg_surface::Resource*)@Base" 0.7.90
 (c++)"non-virtual thunk to GreenIsland::Server::XdgSurfacePrivate::surface_unset_maximized(QtWaylandServer::xdg_surface::Resource*)@Base" 0.7.90
 (c++)"non-virtual thunk to GreenIsland::Server::XdgSurfacePrivate::~XdgSurfacePrivate()@Base" 0.7.90
 wl_buffer_interface@Base 0.7.90
 wl_callback_interface@Base 0.7.90
 wl_compositor_interface@Base 0.7.90
 wl_data_device_interface@Base 0.7.90
 wl_data_device_manager_interface@Base 0.7.90
 wl_data_offer_interface@Base 0.7.90
 wl_data_source_interface@Base 0.7.90
 wl_display_interface@Base 0.7.90
 wl_keyboard_interface@Base 0.7.90
 wl_output_interface@Base 0.7.90
 wl_pointer_interface@Base 0.7.90
 wl_region_interface@Base 0.7.90
 wl_registry_interface@Base 0.7.90
 wl_seat_interface@Base 0.7.90
 wl_shell_interface@Base 0.7.90
 wl_shell_surface_interface@Base 0.7.90
 wl_shm_interface@Base 0.7.90
 wl_shm_pool_interface@Base 0.7.90
 wl_subcompositor_interface@Base 0.7.90
 wl_subsurface_interface@Base 0.7.90
 wl_surface_interface@Base 0.7.90
 wl_touch_interface@Base 0.7.90
 xdg_popup_interface@Base 0.7.90
 xdg_shell_interface@Base 0.7.90
 xdg_surface_interface@Base 0.7.90
