# SymbolsHelper-Confirmed: 0.7.90 amd64
libGreenIslandClient.so.0 libgreenisland-client0 #MINVER#
 _ZN11GreenIsland6Client10Compositor11qt_metacallEN11QMetaObject4CallEiPPv@Base 0.7.90
 _ZN11GreenIsland6Client10Compositor11qt_metacastEPKc@Base 0.7.90
 _ZN11GreenIsland6Client10Compositor12createRegionEP7QObject@Base 0.7.90
 _ZN11GreenIsland6Client10Compositor12createRegionERK7QRegionP7QObject@Base 0.7.90
 _ZN11GreenIsland6Client10Compositor13createSurfaceEP7QObject@Base 0.7.90
 _ZN11GreenIsland6Client10Compositor13interfaceNameEv@Base 0.7.90
 _ZN11GreenIsland6Client10Compositor16staticMetaObjectE@Base 0.7.90
 _ZN11GreenIsland6Client10CompositorC1EP7QObject@Base 0.7.90
 _ZN11GreenIsland6Client10CompositorC2EP7QObject@Base 0.7.90
 _ZN11GreenIsland6Client10Screencast11qt_metacallEN11QMetaObject4CallEiPPv@Base 0.7.90
 _ZN11GreenIsland6Client10Screencast11qt_metacastEPKc@Base 0.7.90
 _ZN11GreenIsland6Client10Screencast11setupFailedEv@Base 0.7.90
 _ZN11GreenIsland6Client10Screencast13frameRecordedEPNS0_6BufferEjNS1_9TransformE@Base 0.7.90
 _ZN11GreenIsland6Client10Screencast13interfaceNameEv@Base 0.7.90
 _ZN11GreenIsland6Client10Screencast16staticMetaObjectE@Base 0.7.90
 _ZN11GreenIsland6Client10Screencast6failedENS1_11RecordErrorE@Base 0.7.90
 _ZN11GreenIsland6Client10Screencast8canceledEv@Base 0.7.90
 _ZN11GreenIsland6Client10Screencast9setupDoneERK5QSizei@Base 0.7.90
 _ZN11GreenIsland6Client10ScreencastC1EP7QObject@Base 0.7.90
 _ZN11GreenIsland6Client10ScreencastC2EP7QObject@Base 0.7.90
 _ZN11GreenIsland6Client10Screenshot11qt_metacallEN11QMetaObject4CallEiPPv@Base 0.7.90
 _ZN11GreenIsland6Client10Screenshot11qt_metacastEPKc@Base 0.7.90
 _ZN11GreenIsland6Client10Screenshot11setupFailedEv@Base 0.7.90
 _ZN11GreenIsland6Client10Screenshot12validChangedEv@Base 0.7.90
 _ZN11GreenIsland6Client10Screenshot13interfaceNameEv@Base 0.7.90
 _ZN11GreenIsland6Client10Screenshot16staticMetaObjectE@Base 0.7.90
 _ZN11GreenIsland6Client10Screenshot4doneEPNS0_6BufferE@Base 0.7.90
 _ZN11GreenIsland6Client10Screenshot6failedENS1_5ErrorE@Base 0.7.90
 _ZN11GreenIsland6Client10Screenshot9setupDoneERK5QSizei@Base 0.7.90
 _ZN11GreenIsland6Client10ScreenshotC1ENS1_11CaptureTypeE6QFlagsINS0_13Screenshooter6EffectEEP7QObject@Base 0.7.90
 _ZN11GreenIsland6Client10ScreenshotC2ENS1_11CaptureTypeE6QFlagsINS0_13Screenshooter6EffectEEP7QObject@Base 0.7.90
 _ZN11GreenIsland6Client10ShmFormats11fromWaylandE13wl_shm_format@Base 0.7.90
 _ZN11GreenIsland6Client10ShmFormats6fromQtEN6QImage6FormatE@Base 0.7.90
 _ZN11GreenIsland6Client10ShmPrivate10shm_formatEj@Base 0.7.90
 _ZN11GreenIsland6Client10ShmPrivateC1Ev@Base 0.7.90
 _ZN11GreenIsland6Client10ShmPrivateC2Ev@Base 0.7.90
 _ZN11GreenIsland6Client10TouchPointC1Ev@Base 0.7.90
 _ZN11GreenIsland6Client10TouchPointC2Ev@Base 0.7.90
 _ZN11GreenIsland6Client10TouchPointD1Ev@Base 0.7.90
 _ZN11GreenIsland6Client10TouchPointD2Ev@Base 0.7.90
 _ZN11GreenIsland6Client11CursorTheme11cursorImageENS1_11CursorShapeE@Base 0.7.90
 _ZN11GreenIsland6Client11CursorTheme11qt_metacallEN11QMetaObject4CallEiPPv@Base 0.7.90
 _ZN11GreenIsland6Client11CursorTheme11qt_metacastEPKc@Base 0.7.90
 _ZN11GreenIsland6Client11CursorTheme12changeCursorENS1_11CursorShapeE@Base 0.7.90
 _ZN11GreenIsland6Client11CursorTheme16staticMetaObjectE@Base 0.7.90
 _ZN11GreenIsland6Client11CursorThemeC1EPNS0_10CompositorEPNS0_7ShmPoolEPNS0_4SeatE@Base 0.7.90
 _ZN11GreenIsland6Client11CursorThemeC2EPNS0_10CompositorEPNS0_7ShmPoolEPNS0_4SeatE@Base 0.7.90
 _ZN11GreenIsland6Client11SeatPrivate17seat_capabilitiesEj@Base 0.7.90
 _ZN11GreenIsland6Client11SeatPrivate9seat_nameERK7QString@Base 0.7.90
 _ZN11GreenIsland6Client11SeatPrivateC1Ev@Base 0.7.90
 _ZN11GreenIsland6Client11SeatPrivateC2Ev@Base 0.7.90
 _ZN11GreenIsland6Client12Screencaster11qt_metacallEN11QMetaObject4CallEiPPv@Base 0.7.90
 _ZN11GreenIsland6Client12Screencaster11qt_metacastEPKc@Base 0.7.90
 _ZN11GreenIsland6Client12Screencaster13captureFailedENS1_12CaptureErrorE@Base 0.7.90
 _ZN11GreenIsland6Client12Screencaster13interfaceNameEv@Base 0.7.90
 _ZN11GreenIsland6Client12Screencaster16staticMetaObjectE@Base 0.7.90
 _ZN11GreenIsland6Client12Screencaster7captureEPNS0_6OutputE@Base 0.7.90
 _ZN11GreenIsland6Client12ScreencasterC1EPNS0_3ShmEP7QObject@Base 0.7.90
 _ZN11GreenIsland6Client12ScreencasterC2EPNS0_3ShmEP7QObject@Base 0.7.90
 _ZN11GreenIsland6Client12TouchPrivate10touch_downEjjP10wl_surfaceiii@Base 0.7.90
 _ZN11GreenIsland6Client12TouchPrivate11fromWlTouchEP8wl_touch@Base 0.7.90
 _ZN11GreenIsland6Client12TouchPrivate11touch_frameEv@Base 0.7.90
 _ZN11GreenIsland6Client12TouchPrivate12touch_cancelEv@Base 0.7.90
 _ZN11GreenIsland6Client12TouchPrivate12touch_motionEjiii@Base 0.7.90
 _ZN11GreenIsland6Client12TouchPrivate8touch_upEjji@Base 0.7.90
 _ZN11GreenIsland6Client12TouchPrivateC1Ev@Base 0.7.90
 _ZN11GreenIsland6Client12TouchPrivateC2Ev@Base 0.7.90
 _ZN11GreenIsland6Client12TouchPrivateD0Ev@Base 0.7.90
 _ZN11GreenIsland6Client12TouchPrivateD1Ev@Base 0.7.90
 _ZN11GreenIsland6Client12TouchPrivateD2Ev@Base 0.7.90
 _ZN11GreenIsland6Client13BufferPrivate12fromWlBufferEP9wl_buffer@Base 0.7.90
 _ZN11GreenIsland6Client13BufferPrivateC1Ev@Base 0.7.90
 _ZN11GreenIsland6Client13BufferPrivateC2Ev@Base 0.7.90
 _ZN11GreenIsland6Client13OutputPrivate11output_doneEv@Base 0.7.90
 _ZN11GreenIsland6Client13OutputPrivate11output_modeEjiii@Base 0.7.90
 _ZN11GreenIsland6Client13OutputPrivate12fromWlOutputEP9wl_output@Base 0.7.90
 _ZN11GreenIsland6Client13OutputPrivate12output_scaleEi@Base 0.7.90
 _ZN11GreenIsland6Client13OutputPrivate15output_geometryEiiiiiRK7QStringS4_i@Base 0.7.90
 _ZN11GreenIsland6Client13OutputPrivateC1Ev@Base 0.7.90
 _ZN11GreenIsland6Client13OutputPrivateC2Ev@Base 0.7.90
 _ZN11GreenIsland6Client13RegionPrivateC1Ev@Base 0.7.90
 _ZN11GreenIsland6Client13RegionPrivateC2Ev@Base 0.7.90
 _ZN11GreenIsland6Client13Screenshooter11captureAreaE6QFlagsINS1_6EffectEE@Base 0.7.90
 _ZN11GreenIsland6Client13Screenshooter11qt_metacallEN11QMetaObject4CallEiPPv@Base 0.7.90
 _ZN11GreenIsland6Client13Screenshooter11qt_metacastEPKc@Base 0.7.90
 _ZN11GreenIsland6Client13Screenshooter13captureOutputEPNS0_6OutputE6QFlagsINS1_6EffectEE@Base 0.7.90
 _ZN11GreenIsland6Client13Screenshooter13captureWindowE6QFlagsINS1_6EffectEE@Base 0.7.90
 _ZN11GreenIsland6Client13Screenshooter13interfaceNameEv@Base 0.7.90
 _ZN11GreenIsland6Client13Screenshooter16staticMetaObjectE@Base 0.7.90
 _ZN11GreenIsland6Client13Screenshooter19captureActiveWindowE6QFlagsINS1_6EffectEE@Base 0.7.90
 _ZN11GreenIsland6Client13ScreenshooterC1EPNS0_3ShmEP7QObject@Base 0.7.90
 _ZN11GreenIsland6Client13ScreenshooterC2EPNS0_3ShmEP7QObject@Base 0.7.90
 _ZN11GreenIsland6Client14PointerPrivate12pointer_axisEjji@Base 0.7.90
 _ZN11GreenIsland6Client14PointerPrivate13fromWlPointerEP10wl_pointer@Base 0.7.90
 _ZN11GreenIsland6Client14PointerPrivate13pointer_enterEjP10wl_surfaceii@Base 0.7.90
 _ZN11GreenIsland6Client14PointerPrivate13pointer_leaveEjP10wl_surface@Base 0.7.90
 _ZN11GreenIsland6Client14PointerPrivate14pointer_buttonEjjjj@Base 0.7.90
 _ZN11GreenIsland6Client14PointerPrivate14pointer_motionEjii@Base 0.7.90
 _ZN11GreenIsland6Client14PointerPrivateC1Ev@Base 0.7.90
 _ZN11GreenIsland6Client14PointerPrivateC2Ev@Base 0.7.90
 _ZN11GreenIsland6Client14PointerPrivateD0Ev@Base 0.7.90
 _ZN11GreenIsland6Client14PointerPrivateD1Ev@Base 0.7.90
 _ZN11GreenIsland6Client14PointerPrivateD2Ev@Base 0.7.90
 _ZN11GreenIsland6Client14ShmPoolPrivate10createPoolEPNS0_3ShmEm@Base 0.7.90
 _ZN11GreenIsland6Client14ShmPoolPrivate10resizePoolEm@Base 0.7.90
 _ZN11GreenIsland6Client14ShmPoolPrivate11reuseBufferERK5QSizeiNS0_3Shm6FormatE@Base 0.7.90
 _ZN11GreenIsland6Client14ShmPoolPrivateC1Ev@Base 0.7.90
 _ZN11GreenIsland6Client14ShmPoolPrivateC2Ev@Base 0.7.90
 _ZN11GreenIsland6Client14ShmPoolPrivateD0Ev@Base 0.7.90
 _ZN11GreenIsland6Client14ShmPoolPrivateD1Ev@Base 0.7.90
 _ZN11GreenIsland6Client14ShmPoolPrivateD2Ev@Base 0.7.90
 _ZN11GreenIsland6Client14SurfacePrivate13frameCallbackEPvP11wl_callbackj@Base 0.7.90
 _ZN11GreenIsland6Client14SurfacePrivate13fromWlSurfaceEP10wl_surface@Base 0.7.90
 _ZN11GreenIsland6Client14SurfacePrivate13surface_enterEP9wl_output@Base 0.7.90
 _ZN11GreenIsland6Client14SurfacePrivate13surface_leaveEP9wl_output@Base 0.7.90
 _ZN11GreenIsland6Client14SurfacePrivate16callbackListenerE@Base 0.7.90
 _ZN11GreenIsland6Client14SurfacePrivate19handleFrameCallbackEv@Base 0.7.90
 _ZN11GreenIsland6Client14SurfacePrivateC1Ev@Base 0.7.90
 _ZN11GreenIsland6Client14SurfacePrivateC2Ev@Base 0.7.90
 _ZN11GreenIsland6Client15FullScreenShell10hideOutputEPNS0_6OutputE@Base 0.7.90
 _ZN11GreenIsland6Client15FullScreenShell11qt_metacallEN11QMetaObject4CallEiPPv@Base 0.7.90
 _ZN11GreenIsland6Client15FullScreenShell11qt_metacastEPKc@Base 0.7.90
 _ZN11GreenIsland6Client15FullScreenShell14presentSurfaceEPNS0_7SurfaceEPNS0_6OutputENS1_13PresentMethodE@Base 0.7.90
 _ZN11GreenIsland6Client15FullScreenShell16staticMetaObjectE@Base 0.7.90
 _ZN11GreenIsland6Client15FullScreenShell19capabilitiesChangedEv@Base 0.7.90
 _ZN11GreenIsland6Client15FullScreenShellC1EP7QObject@Base 0.7.90
 _ZN11GreenIsland6Client15FullScreenShellC2EP7QObject@Base 0.7.90
 _ZN11GreenIsland6Client15KeyboardPrivate12keyboard_keyEjjjj@Base 0.7.90
 _ZN11GreenIsland6Client15KeyboardPrivate14fromWlKeyboardEP11wl_keyboard@Base 0.7.90
 _ZN11GreenIsland6Client15KeyboardPrivate14keyboard_enterEjP10wl_surfaceP8wl_array@Base 0.7.90
 _ZN11GreenIsland6Client15KeyboardPrivate14keyboard_leaveEjP10wl_surface@Base 0.7.90
 _ZN11GreenIsland6Client15KeyboardPrivate15keyboard_keymapEjij@Base 0.7.90
 _ZN11GreenIsland6Client15KeyboardPrivate18keyboard_modifiersEjjjjj@Base 0.7.90
 _ZN11GreenIsland6Client15KeyboardPrivate20keyboard_repeat_infoEii@Base 0.7.90
 _ZN11GreenIsland6Client15KeyboardPrivateC1Ev@Base 0.7.90
 _ZN11GreenIsland6Client15KeyboardPrivateC2Ev@Base 0.7.90
 _ZN11GreenIsland6Client15KeyboardPrivateD0Ev@Base 0.7.90
 _ZN11GreenIsland6Client15KeyboardPrivateD1Ev@Base 0.7.90
 _ZN11GreenIsland6Client15KeyboardPrivateD2Ev@Base 0.7.90
 _ZN11GreenIsland6Client15RegistryPrivate10globalSyncEPvP11wl_callbackj@Base 0.7.90
 _ZN11GreenIsland6Client15RegistryPrivate10handleSyncEv@Base 0.7.90
 _ZN11GreenIsland6Client15RegistryPrivate12globalRemoveEPvP11wl_registryj@Base 0.7.90
 _ZN11GreenIsland6Client15RegistryPrivate12handleRemoveEj@Base 0.7.90
 _ZN11GreenIsland6Client15RegistryPrivate14globalAnnounceEPvP11wl_registryjPKcj@Base 0.7.90
 _ZN11GreenIsland6Client15RegistryPrivate14handleAnnounceEPKcjj@Base 0.7.90
 _ZN11GreenIsland6Client15RegistryPrivate18s_callbackListenerE@Base 0.7.90
 _ZN11GreenIsland6Client15RegistryPrivate18s_registryListenerE@Base 0.7.90
 _ZN11GreenIsland6Client15RegistryPrivate5setupEv@Base 0.7.90
 _ZN11GreenIsland6Client15RegistryPrivateC1Ev@Base 0.7.90
 _ZN11GreenIsland6Client15RegistryPrivateC2Ev@Base 0.7.90
 _ZN11GreenIsland6Client15RegistryPrivateD0Ev@Base 0.7.90
 _ZN11GreenIsland6Client15RegistryPrivateD1Ev@Base 0.7.90
 _ZN11GreenIsland6Client15RegistryPrivateD2Ev@Base 0.7.90
 _ZN11GreenIsland6Client16ClientConnection10setDisplayEP10wl_display@Base 0.7.90
 _ZN11GreenIsland6Client16ClientConnection11qt_metacallEN11QMetaObject4CallEiPPv@Base 0.7.90
 _ZN11GreenIsland6Client16ClientConnection11qt_metacastEPKc@Base 0.7.90
 _ZN11GreenIsland6Client16ClientConnection11setSocketFdEi@Base 0.7.90
 _ZN11GreenIsland6Client16ClientConnection13flushRequestsEv@Base 0.7.90
 _ZN11GreenIsland6Client16ClientConnection13setSocketNameERK7QString@Base 0.7.90
 _ZN11GreenIsland6Client16ClientConnection14forceRoundTripEv@Base 0.7.90
 _ZN11GreenIsland6Client16ClientConnection16eventsDispatchedEv@Base 0.7.90
 _ZN11GreenIsland6Client16ClientConnection16staticMetaObjectE@Base 0.7.90
 _ZN11GreenIsland6Client16ClientConnection18blockingReadEventsEv@Base 0.7.90
 _ZN11GreenIsland6Client16ClientConnection20initializeConnectionEv@Base 0.7.90
 _ZN11GreenIsland6Client16ClientConnection21synchronousConnectionEv@Base 0.7.90
 _ZN11GreenIsland6Client16ClientConnection6failedEv@Base 0.7.90
 _ZN11GreenIsland6Client16ClientConnection6fromQtEP7QObject@Base 0.7.90
 _ZN11GreenIsland6Client16ClientConnection9connectedEv@Base 0.7.90
 _ZN11GreenIsland6Client16ClientConnectionC1EP7QObject@Base 0.7.90
 _ZN11GreenIsland6Client16ClientConnectionC2EP7QObject@Base 0.7.90
 _ZN11GreenIsland6Client17CompositorPrivateC1Ev@Base 0.7.90
 _ZN11GreenIsland6Client17CompositorPrivateC2Ev@Base 0.7.90
 _ZN11GreenIsland6Client17ScreencastPrivate11recordFrameEv@Base 0.7.90
 _ZN11GreenIsland6Client17ScreencastPrivate16screencast_frameEP9wl_bufferji@Base 0.7.90
 _ZN11GreenIsland6Client17ScreencastPrivate16screencast_setupEiiii@Base 0.7.90
 _ZN11GreenIsland6Client17ScreencastPrivate17screencast_failedEiP9wl_buffer@Base 0.7.90
 _ZN11GreenIsland6Client17ScreencastPrivate20screencast_cancelledEP9wl_buffer@Base 0.7.90
 _ZN11GreenIsland6Client17ScreencastPrivateC1EPNS0_12ScreencasterE@Base 0.7.90
 _ZN11GreenIsland6Client17ScreencastPrivateC2EPNS0_12ScreencasterE@Base 0.7.90
 _ZN11GreenIsland6Client17ScreencastPrivateD0Ev@Base 0.7.90
 _ZN11GreenIsland6Client17ScreencastPrivateD1Ev@Base 0.7.90
 _ZN11GreenIsland6Client17ScreencastPrivateD2Ev@Base 0.7.90
 _ZN11GreenIsland6Client17ScreenshotPrivate15screenshot_doneEv@Base 0.7.90
 _ZN11GreenIsland6Client17ScreenshotPrivate16screenshot_setupEiiii@Base 0.7.90
 _ZN11GreenIsland6Client17ScreenshotPrivate17screenshot_failedEi@Base 0.7.90
 _ZN11GreenIsland6Client17ScreenshotPrivateC1EPNS0_13ScreenshooterE@Base 0.7.90
 _ZN11GreenIsland6Client17ScreenshotPrivateC2EPNS0_13ScreenshooterE@Base 0.7.90
 _ZN11GreenIsland6Client17ScreenshotPrivateD0Ev@Base 0.7.90
 _ZN11GreenIsland6Client17ScreenshotPrivateD1Ev@Base 0.7.90
 _ZN11GreenIsland6Client17ScreenshotPrivateD2Ev@Base 0.7.90
 _ZN11GreenIsland6Client17TouchPointPrivateC1Ev@Base 0.7.90
 _ZN11GreenIsland6Client17TouchPointPrivateC2Ev@Base 0.7.90
 _ZN11GreenIsland6Client18CursorThemePrivate12destroyThemeEv@Base 0.7.90
 _ZN11GreenIsland6Client18CursorThemePrivate13requestCursorENS0_11CursorTheme11CursorShapeE@Base 0.7.90
 _ZN11GreenIsland6Client18CursorThemePrivate16fillCursorShapesEv@Base 0.7.90
 _ZN11GreenIsland6Client18CursorThemePrivate9loadThemeEv@Base 0.7.90
 _ZN11GreenIsland6Client18CursorThemePrivateC1Ev@Base 0.7.90
 _ZN11GreenIsland6Client18CursorThemePrivateC2Ev@Base 0.7.90
 _ZN11GreenIsland6Client18CursorThemePrivateD0Ev@Base 0.7.90
 _ZN11GreenIsland6Client18CursorThemePrivateD1Ev@Base 0.7.90
 _ZN11GreenIsland6Client18CursorThemePrivateD2Ev@Base 0.7.90
 _ZN11GreenIsland6Client19ScreencasterPrivateC1Ev@Base 0.7.90
 _ZN11GreenIsland6Client19ScreencasterPrivateC2Ev@Base 0.7.90
 _ZN11GreenIsland6Client19ScreencasterPrivateD0Ev@Base 0.7.90
 _ZN11GreenIsland6Client19ScreencasterPrivateD1Ev@Base 0.7.90
 _ZN11GreenIsland6Client19ScreencasterPrivateD2Ev@Base 0.7.90
 _ZN11GreenIsland6Client20ScreenshooterPrivate12effectsArrayE6QFlagsINS0_13Screenshooter6EffectEE@Base 0.7.90
 _ZN11GreenIsland6Client20ScreenshooterPrivate13removeRequestEPNS0_10ScreenshotE@Base 0.7.90
 _ZN11GreenIsland6Client20ScreenshooterPrivateC1Ev@Base 0.7.90
 _ZN11GreenIsland6Client20ScreenshooterPrivateC2Ev@Base 0.7.90
 _ZN11GreenIsland6Client20ScreenshooterPrivateD0Ev@Base 0.7.90
 _ZN11GreenIsland6Client20ScreenshooterPrivateD1Ev@Base 0.7.90
 _ZN11GreenIsland6Client20ScreenshooterPrivateD2Ev@Base 0.7.90
 _ZN11GreenIsland6Client22FullScreenShellPrivate27fullscreen_shell_capabilityEj@Base 0.7.90
 _ZN11GreenIsland6Client22FullScreenShellPrivateC1Ev@Base 0.7.90
 _ZN11GreenIsland6Client22FullScreenShellPrivateC2Ev@Base 0.7.90
 _ZN11GreenIsland6Client23ClientConnectionPrivate10checkErrorEv@Base 0.7.90
 _ZN11GreenIsland6Client23ClientConnectionPrivate17_q_initConnectionEv@Base 0.7.90
 _ZN11GreenIsland6Client23ClientConnectionPrivate19setupSocketNotifierEv@Base 0.7.90
 _ZN11GreenIsland6Client23ClientConnectionPrivateC1Ev@Base 0.7.90
 _ZN11GreenIsland6Client23ClientConnectionPrivateC2Ev@Base 0.7.90
 _ZN11GreenIsland6Client23ClientConnectionPrivateD0Ev@Base 0.7.90
 _ZN11GreenIsland6Client23ClientConnectionPrivateD1Ev@Base 0.7.90
 _ZN11GreenIsland6Client23ClientConnectionPrivateD2Ev@Base 0.7.90
 _ZN11GreenIsland6Client3Shm10createPoolEm@Base 0.7.90
 _ZN11GreenIsland6Client3Shm11formatAddedENS1_6FormatE@Base 0.7.90
 _ZN11GreenIsland6Client3Shm11qt_metacallEN11QMetaObject4CallEiPPv@Base 0.7.90
 _ZN11GreenIsland6Client3Shm11qt_metacastEPKc@Base 0.7.90
 _ZN11GreenIsland6Client3Shm13interfaceNameEv@Base 0.7.90
 _ZN11GreenIsland6Client3Shm14formatToStringENS1_6FormatE@Base 0.7.90
 _ZN11GreenIsland6Client3Shm16staticMetaObjectE@Base 0.7.90
 _ZN11GreenIsland6Client3ShmC1EP7QObject@Base 0.7.90
 _ZN11GreenIsland6Client3ShmC2EP7QObject@Base 0.7.90
 _ZN11GreenIsland6Client4Seat10touchAddedEv@Base 0.7.90
 _ZN11GreenIsland6Client4Seat11nameChangedEv@Base 0.7.90
 _ZN11GreenIsland6Client4Seat11qt_metacallEN11QMetaObject4CallEiPPv@Base 0.7.90
 _ZN11GreenIsland6Client4Seat11qt_metacastEPKc@Base 0.7.90
 _ZN11GreenIsland6Client4Seat12pointerAddedEv@Base 0.7.90
 _ZN11GreenIsland6Client4Seat12touchRemovedEv@Base 0.7.90
 _ZN11GreenIsland6Client4Seat13interfaceNameEv@Base 0.7.90
 _ZN11GreenIsland6Client4Seat13keyboardAddedEv@Base 0.7.90
 _ZN11GreenIsland6Client4Seat14pointerRemovedEv@Base 0.7.90
 _ZN11GreenIsland6Client4Seat15keyboardRemovedEv@Base 0.7.90
 _ZN11GreenIsland6Client4Seat16staticMetaObjectE@Base 0.7.90
 _ZN11GreenIsland6Client4SeatC1EP7QObject@Base 0.7.90
 _ZN11GreenIsland6Client4SeatC2EP7QObject@Base 0.7.90
 _ZN11GreenIsland6Client5Touch10pointAddedEPNS0_10TouchPointE@Base 0.7.90
 _ZN11GreenIsland6Client5Touch10pointMovedEPNS0_10TouchPointE@Base 0.7.90
 _ZN11GreenIsland6Client5Touch11qt_metacallEN11QMetaObject4CallEiPPv@Base 0.7.90
 _ZN11GreenIsland6Client5Touch11qt_metacastEPKc@Base 0.7.90
 _ZN11GreenIsland6Client5Touch12pointRemovedEPNS0_10TouchPointE@Base 0.7.90
 _ZN11GreenIsland6Client5Touch13frameFinishedEv@Base 0.7.90
 _ZN11GreenIsland6Client5Touch13interfaceNameEv@Base 0.7.90
 _ZN11GreenIsland6Client5Touch15sequenceStartedEPNS0_10TouchPointE@Base 0.7.90
 _ZN11GreenIsland6Client5Touch16sequenceCanceledEv@Base 0.7.90
 _ZN11GreenIsland6Client5Touch16sequenceFinishedEv@Base 0.7.90
 _ZN11GreenIsland6Client5Touch16staticMetaObjectE@Base 0.7.90
 _ZN11GreenIsland6Client5TouchC1EPNS0_4SeatE@Base 0.7.90
 _ZN11GreenIsland6Client5TouchC2EPNS0_4SeatE@Base 0.7.90
 _ZN11GreenIsland6Client6Buffer11qt_metacallEN11QMetaObject4CallEiPPv@Base 0.7.90
 _ZN11GreenIsland6Client6Buffer11qt_metacastEPKc@Base 0.7.90
 _ZN11GreenIsland6Client6Buffer11setReleasedEb@Base 0.7.90
 _ZN11GreenIsland6Client6Buffer11usedChangedEv@Base 0.7.90
 _ZN11GreenIsland6Client6Buffer15releasedChangedEv@Base 0.7.90
 _ZN11GreenIsland6Client6Buffer16staticMetaObjectE@Base 0.7.90
 _ZN11GreenIsland6Client6Buffer4copyEPKv@Base 0.7.90
 _ZN11GreenIsland6Client6Buffer7setUsedEb@Base 0.7.90
 _ZN11GreenIsland6Client6BufferC1EPNS0_7ShmPoolERK5QSizeiiNS0_3Shm6FormatE@Base 0.7.90
 _ZN11GreenIsland6Client6BufferC2EPNS0_7ShmPoolERK5QSizeiiNS0_3Shm6FormatE@Base 0.7.90
 _ZN11GreenIsland6Client6Output11modeChangedERKNS1_4ModeE@Base 0.7.90
 _ZN11GreenIsland6Client6Output11qt_metacallEN11QMetaObject4CallEiPPv@Base 0.7.90
 _ZN11GreenIsland6Client6Output11qt_metacastEPKc@Base 0.7.90
 _ZN11GreenIsland6Client6Output11sizeChangedEv@Base 0.7.90
 _ZN11GreenIsland6Client6Output12modelChangedEv@Base 0.7.90
 _ZN11GreenIsland6Client6Output12scaleChangedEv@Base 0.7.90
 _ZN11GreenIsland6Client6Output13interfaceNameEv@Base 0.7.90
 _ZN11GreenIsland6Client6Output13outputChangedEv@Base 0.7.90
 _ZN11GreenIsland6Client6Output15geometryChangedEv@Base 0.7.90
 _ZN11GreenIsland6Client6Output15positionChangedEv@Base 0.7.90
 _ZN11GreenIsland6Client6Output15subpixelChangedEv@Base 0.7.90
 _ZN11GreenIsland6Client6Output16staticMetaObjectE@Base 0.7.90
 _ZN11GreenIsland6Client6Output16transformChangedEv@Base 0.7.90
 _ZN11GreenIsland6Client6Output18refreshRateChangedEv@Base 0.7.90
 _ZN11GreenIsland6Client6Output19manufacturerChangedEv@Base 0.7.90
 _ZN11GreenIsland6Client6Output19physicalSizeChangedEv@Base 0.7.90
 _ZN11GreenIsland6Client6Output6fromQtEP7QScreenP7QObject@Base 0.7.90
 _ZN11GreenIsland6Client6Output9modeAddedERKNS1_4ModeE@Base 0.7.90
 _ZN11GreenIsland6Client6OutputC1EP7QObject@Base 0.7.90
 _ZN11GreenIsland6Client6OutputC2EP7QObject@Base 0.7.90
 _ZN11GreenIsland6Client6Region11qt_metacallEN11QMetaObject4CallEiPPv@Base 0.7.90
 _ZN11GreenIsland6Client6Region11qt_metacastEPKc@Base 0.7.90
 _ZN11GreenIsland6Client6Region13interfaceNameEv@Base 0.7.90
 _ZN11GreenIsland6Client6Region16staticMetaObjectE@Base 0.7.90
 _ZN11GreenIsland6Client6Region3addERK5QRect@Base 0.7.90
 _ZN11GreenIsland6Client6Region3addERK7QRegion@Base 0.7.90
 _ZN11GreenIsland6Client6Region8subtractERK5QRect@Base 0.7.90
 _ZN11GreenIsland6Client6Region8subtractERK7QRegion@Base 0.7.90
 _ZN11GreenIsland6Client6RegionC1ERK7QRegionP7QObject@Base 0.7.90
 _ZN11GreenIsland6Client6RegionC2ERK7QRegionP7QObject@Base 0.7.90
 _ZN11GreenIsland6Client7Pointer11axisChangedEjRKN2Qt11OrientationEd@Base 0.7.90
 _ZN11GreenIsland6Client7Pointer11qt_metacallEN11QMetaObject4CallEiPPv@Base 0.7.90
 _ZN11GreenIsland6Client7Pointer11qt_metacastEPKc@Base 0.7.90
 _ZN11GreenIsland6Client7Pointer13buttonPressedEjjRKN2Qt11MouseButtonE@Base 0.7.90
 _ZN11GreenIsland6Client7Pointer13interfaceNameEv@Base 0.7.90
 _ZN11GreenIsland6Client7Pointer14buttonReleasedEjjRKN2Qt11MouseButtonE@Base 0.7.90
 _ZN11GreenIsland6Client7Pointer16staticMetaObjectE@Base 0.7.90
 _ZN11GreenIsland6Client7Pointer19focusSurfaceChangedEv@Base 0.7.90
 _ZN11GreenIsland6Client7Pointer20cursorSurfaceChangedEv@Base 0.7.90
 _ZN11GreenIsland6Client7Pointer5enterEjRK7QPointF@Base 0.7.90
 _ZN11GreenIsland6Client7Pointer5leaveEj@Base 0.7.90
 _ZN11GreenIsland6Client7Pointer6motionEjRK7QPointF@Base 0.7.90
 _ZN11GreenIsland6Client7Pointer9setCursorEPNS0_7SurfaceERK6QPoint@Base 0.7.90
 _ZN11GreenIsland6Client7PointerC1EPNS0_4SeatE@Base 0.7.90
 _ZN11GreenIsland6Client7PointerC2EPNS0_4SeatE@Base 0.7.90
 _ZN11GreenIsland6Client7ShmPool10findBufferERK5QSizejNS0_3Shm6FormatE@Base 0.7.90
 _ZN11GreenIsland6Client7ShmPool11qt_metacallEN11QMetaObject4CallEiPPv@Base 0.7.90
 _ZN11GreenIsland6Client7ShmPool11qt_metacastEPKc@Base 0.7.90
 _ZN11GreenIsland6Client7ShmPool12createBufferERK5QSizejPKvNS0_3Shm6FormatE@Base 0.7.90
 _ZN11GreenIsland6Client7ShmPool12createBufferERK6QImage@Base 0.7.90
 _ZN11GreenIsland6Client7ShmPool13interfaceNameEv@Base 0.7.90
 _ZN11GreenIsland6Client7ShmPool16staticMetaObjectE@Base 0.7.90
 _ZN11GreenIsland6Client7ShmPool7resizedEv@Base 0.7.90
 _ZN11GreenIsland6Client7ShmPoolC1EPNS0_3ShmE@Base 0.7.90
 _ZN11GreenIsland6Client7ShmPoolC2EPNS0_3ShmE@Base 0.7.90
 _ZN11GreenIsland6Client7Surface11qt_metacallEN11QMetaObject4CallEiPPv@Base 0.7.90
 _ZN11GreenIsland6Client7Surface11qt_metacastEPKc@Base 0.7.90
 _ZN11GreenIsland6Client7Surface13frameRenderedEv@Base 0.7.90
 _ZN11GreenIsland6Client7Surface13interfaceNameEv@Base 0.7.90
 _ZN11GreenIsland6Client7Surface14setBufferScaleEi@Base 0.7.90
 _ZN11GreenIsland6Client7Surface14setInputRegionEPNS0_6RegionE@Base 0.7.90
 _ZN11GreenIsland6Client7Surface15setOpaqueRegionEPNS0_6RegionE@Base 0.7.90
 _ZN11GreenIsland6Client7Surface16staticMetaObjectE@Base 0.7.90
 _ZN11GreenIsland6Client7Surface18setBufferTransformENS0_6Output9TransformE@Base 0.7.90
 _ZN11GreenIsland6Client7Surface18setupFrameCallbackEv@Base 0.7.90
 _ZN11GreenIsland6Client7Surface5enterEPNS0_6OutputE@Base 0.7.90
 _ZN11GreenIsland6Client7Surface5leaveEPNS0_6OutputE@Base 0.7.90
 _ZN11GreenIsland6Client7Surface6attachE12QWeakPointerINS0_6BufferEERK6QPoint@Base 0.7.90
 _ZN11GreenIsland6Client7Surface6attachEPNS0_6BufferERK6QPoint@Base 0.7.90
 _ZN11GreenIsland6Client7Surface6commitENS1_10CommitModeE@Base 0.7.90
 _ZN11GreenIsland6Client7Surface6damageERK5QRect@Base 0.7.90
 _ZN11GreenIsland6Client7Surface6fromQtEP7QWindowP7QObject@Base 0.7.90
 _ZN11GreenIsland6Client7SurfaceC1EP7QObject@Base 0.7.90
 _ZN11GreenIsland6Client7SurfaceC2EP7QObject@Base 0.7.90
 _ZN11GreenIsland6Client8Keyboard10keyPressedEjj@Base 0.7.90
 _ZN11GreenIsland6Client8Keyboard11keyReleasedEjj@Base 0.7.90
 _ZN11GreenIsland6Client8Keyboard11qt_metacallEN11QMetaObject4CallEiPPv@Base 0.7.90
 _ZN11GreenIsland6Client8Keyboard11qt_metacastEPKc@Base 0.7.90
 _ZN11GreenIsland6Client8Keyboard13interfaceNameEv@Base 0.7.90
 _ZN11GreenIsland6Client8Keyboard13keymapChangedEij@Base 0.7.90
 _ZN11GreenIsland6Client8Keyboard16modifiersChangedEjjjj@Base 0.7.90
 _ZN11GreenIsland6Client8Keyboard16staticMetaObjectE@Base 0.7.90
 _ZN11GreenIsland6Client8Keyboard17repeatRateChangedEv@Base 0.7.90
 _ZN11GreenIsland6Client8Keyboard18repeatDelayChangedEv@Base 0.7.90
 _ZN11GreenIsland6Client8Keyboard5enterEj@Base 0.7.90
 _ZN11GreenIsland6Client8Keyboard5leaveEj@Base 0.7.90
 _ZN11GreenIsland6Client8KeyboardC1EPNS0_4SeatE@Base 0.7.90
 _ZN11GreenIsland6Client8KeyboardC2EPNS0_4SeatE@Base 0.7.90
 _ZN11GreenIsland6Client8Registry10createSeatEjjP7QObject@Base 0.7.90
 _ZN11GreenIsland6Client8Registry10shmRemovedEj@Base 0.7.90
 _ZN11GreenIsland6Client8Registry11qt_metacallEN11QMetaObject4CallEiPPv@Base 0.7.90
 _ZN11GreenIsland6Client8Registry11qt_metacastEPKc@Base 0.7.90
 _ZN11GreenIsland6Client8Registry11seatRemovedEj@Base 0.7.90
 _ZN11GreenIsland6Client8Registry12createOutputEjjP7QObject@Base 0.7.90
 _ZN11GreenIsland6Client8Registry12shmAnnouncedEjj@Base 0.7.90
 _ZN11GreenIsland6Client8Registry13interfaceNameEv@Base 0.7.90
 _ZN11GreenIsland6Client8Registry13outputRemovedEj@Base 0.7.90
 _ZN11GreenIsland6Client8Registry13seatAnnouncedEjj@Base 0.7.90
 _ZN11GreenIsland6Client8Registry15outputAnnouncedEjj@Base 0.7.90
 _ZN11GreenIsland6Client8Registry16createCompositorEjjP7QObject@Base 0.7.90
 _ZN11GreenIsland6Client8Registry16interfaceRemovedEj@Base 0.7.90
 _ZN11GreenIsland6Client8Registry16staticMetaObjectE@Base 0.7.90
 _ZN11GreenIsland6Client8Registry17compositorRemovedEj@Base 0.7.90
 _ZN11GreenIsland6Client8Registry17interfacesRemovedEv@Base 0.7.90
 _ZN11GreenIsland6Client8Registry18createScreencasterEPNS0_3ShmEjjP7QObject@Base 0.7.90
 _ZN11GreenIsland6Client8Registry18interfaceAnnouncedERK10QByteArrayjj@Base 0.7.90
 _ZN11GreenIsland6Client8Registry19compositorAnnouncedEjj@Base 0.7.90
 _ZN11GreenIsland6Client8Registry19createScreenshooterEPNS0_3ShmEjjP7QObject@Base 0.7.90
 _ZN11GreenIsland6Client8Registry19interfacesAnnouncedEv@Base 0.7.90
 _ZN11GreenIsland6Client8Registry19screencasterRemovedEj@Base 0.7.90
 _ZN11GreenIsland6Client8Registry20screenshooterRemovedEj@Base 0.7.90
 _ZN11GreenIsland6Client8Registry21createFullScreenShellEjjP7QObject@Base 0.7.90
 _ZN11GreenIsland6Client8Registry21screencasterAnnouncedEjj@Base 0.7.90
 _ZN11GreenIsland6Client8Registry22fullscreenShellRemovedEj@Base 0.7.90
 _ZN11GreenIsland6Client8Registry22screenshooterAnnouncedEjj@Base 0.7.90
 _ZN11GreenIsland6Client8Registry24fullscreenShellAnnouncedEjj@Base 0.7.90
 _ZN11GreenIsland6Client8Registry5setupEv@Base 0.7.90
 _ZN11GreenIsland6Client8Registry6createEP10wl_display@Base 0.7.90
 _ZN11GreenIsland6Client8Registry9createShmEjjP7QObject@Base 0.7.90
 _ZN11GreenIsland6Client8RegistryC1EP7QObject@Base 0.7.90
 _ZN11GreenIsland6Client8RegistryC2EP7QObject@Base 0.7.90
 _ZNK11GreenIsland6Client10Compositor10metaObjectEv@Base 0.7.90
 _ZNK11GreenIsland6Client10Screencast10metaObjectEv@Base 0.7.90
 _ZNK11GreenIsland6Client10Screenshot10metaObjectEv@Base 0.7.90
 _ZNK11GreenIsland6Client10Screenshot11captureTypeEv@Base 0.7.90
 _ZNK11GreenIsland6Client10Screenshot6outputEv@Base 0.7.90
 _ZNK11GreenIsland6Client10Screenshot7effectsEv@Base 0.7.90
 _ZNK11GreenIsland6Client10TouchPoint10downSerialEv@Base 0.7.90
 _ZNK11GreenIsland6Client10TouchPoint10timestampsEv@Base 0.7.90
 _ZNK11GreenIsland6Client10TouchPoint2idEv@Base 0.7.90
 _ZNK11GreenIsland6Client10TouchPoint6isDownEv@Base 0.7.90
 _ZNK11GreenIsland6Client10TouchPoint7surfaceEv@Base 0.7.90
 _ZNK11GreenIsland6Client10TouchPoint8positionEv@Base 0.7.90
 _ZNK11GreenIsland6Client10TouchPoint8upSerialEv@Base 0.7.90
 _ZNK11GreenIsland6Client10TouchPoint9positionsEv@Base 0.7.90
 _ZNK11GreenIsland6Client10TouchPoint9timestampEv@Base 0.7.90
 _ZNK11GreenIsland6Client11CursorTheme10metaObjectEv@Base 0.7.90
 _ZNK11GreenIsland6Client12Screencaster10metaObjectEv@Base 0.7.90
 _ZNK11GreenIsland6Client12TouchPrivate15getPressedPointEi@Base 0.7.90
 _ZNK11GreenIsland6Client13Screenshooter10metaObjectEv@Base 0.7.90
 _ZNK11GreenIsland6Client15FullScreenShell10metaObjectEv@Base 0.7.90
 _ZNK11GreenIsland6Client15FullScreenShell12capabilitiesEv@Base 0.7.90
 _ZNK11GreenIsland6Client16ClientConnection10metaObjectEv@Base 0.7.90
 _ZNK11GreenIsland6Client16ClientConnection10socketNameEv@Base 0.7.90
 _ZNK11GreenIsland6Client16ClientConnection11isConnectedEv@Base 0.7.90
 _ZNK11GreenIsland6Client16ClientConnection7displayEv@Base 0.7.90
 _ZNK11GreenIsland6Client16ClientConnection8socketFdEv@Base 0.7.90
 _ZNK11GreenIsland6Client3Shm10metaObjectEv@Base 0.7.90
 _ZNK11GreenIsland6Client3Shm7formatsEv@Base 0.7.90
 _ZNK11GreenIsland6Client4Seat10metaObjectEv@Base 0.7.90
 _ZNK11GreenIsland6Client4Seat4nameEv@Base 0.7.90
 _ZNK11GreenIsland6Client4Seat5touchEv@Base 0.7.90
 _ZNK11GreenIsland6Client4Seat7pointerEv@Base 0.7.90
 _ZNK11GreenIsland6Client4Seat7versionEv@Base 0.7.90
 _ZNK11GreenIsland6Client4Seat8keyboardEv@Base 0.7.90
 _ZNK11GreenIsland6Client5Touch10metaObjectEv@Base 0.7.90
 _ZNK11GreenIsland6Client6Buffer10isReleasedEv@Base 0.7.90
 _ZNK11GreenIsland6Client6Buffer10metaObjectEv@Base 0.7.90
 _ZNK11GreenIsland6Client6Buffer4sizeEv@Base 0.7.90
 _ZNK11GreenIsland6Client6Buffer5imageEv@Base 0.7.90
 _ZNK11GreenIsland6Client6Buffer6formatEv@Base 0.7.90
 _ZNK11GreenIsland6Client6Buffer6isUsedEv@Base 0.7.90
 _ZNK11GreenIsland6Client6Buffer6strideEv@Base 0.7.90
 _ZNK11GreenIsland6Client6Buffer7addressEv@Base 0.7.90
 _ZNK11GreenIsland6Client6Output10metaObjectEv@Base 0.7.90
 _ZNK11GreenIsland6Client6Output11refreshRateEv@Base 0.7.90
 _ZNK11GreenIsland6Client6Output12manufacturerEv@Base 0.7.90
 _ZNK11GreenIsland6Client6Output12physicalSizeEv@Base 0.7.90
 _ZNK11GreenIsland6Client6Output4sizeEv@Base 0.7.90
 _ZNK11GreenIsland6Client6Output5modelEv@Base 0.7.90
 _ZNK11GreenIsland6Client6Output5modesEv@Base 0.7.90
 _ZNK11GreenIsland6Client6Output5scaleEv@Base 0.7.90
 _ZNK11GreenIsland6Client6Output8geometryEv@Base 0.7.90
 _ZNK11GreenIsland6Client6Output8positionEv@Base 0.7.90
 _ZNK11GreenIsland6Client6Output8subpixelEv@Base 0.7.90
 _ZNK11GreenIsland6Client6Output9transformEv@Base 0.7.90
 _ZNK11GreenIsland6Client6Region10metaObjectEv@Base 0.7.90
 _ZNK11GreenIsland6Client6Region13isInitializedEv@Base 0.7.90
 _ZNK11GreenIsland6Client7Pointer10metaObjectEv@Base 0.7.90
 _ZNK11GreenIsland6Client7Pointer12focusSurfaceEv@Base 0.7.90
 _ZNK11GreenIsland6Client7Pointer13cursorSurfaceEv@Base 0.7.90
 _ZNK11GreenIsland6Client7ShmPool10metaObjectEv@Base 0.7.90
 _ZNK11GreenIsland6Client7ShmPool3shmEv@Base 0.7.90
 _ZNK11GreenIsland6Client7ShmPool7addressEv@Base 0.7.90
 _ZNK11GreenIsland6Client7Surface10metaObjectEv@Base 0.7.90
 _ZNK11GreenIsland6Client8Keyboard10metaObjectEv@Base 0.7.90
 _ZNK11GreenIsland6Client8Keyboard10repeatRateEv@Base 0.7.90
 _ZNK11GreenIsland6Client8Keyboard11repeatDelayEv@Base 0.7.90
 _ZNK11GreenIsland6Client8Keyboard12focusSurfaceEv@Base 0.7.90
 _ZNK11GreenIsland6Client8Registry10metaObjectEv@Base 0.7.90
 _ZNK11GreenIsland6Client8Registry7displayEv@Base 0.7.90
 _ZNK11GreenIsland6Client8Registry7isValidEv@Base 0.7.90
 _ZTIN11GreenIsland6Client10CompositorE@Base 0.7.90
 _ZTIN11GreenIsland6Client10ScreencastE@Base 0.7.90
 _ZTIN11GreenIsland6Client10ScreenshotE@Base 0.7.90
 _ZTIN11GreenIsland6Client10ShmPrivateE@Base 0.7.90
 _ZTIN11GreenIsland6Client11CursorThemeE@Base 0.7.90
 _ZTIN11GreenIsland6Client11SeatPrivateE@Base 0.7.90
 _ZTIN11GreenIsland6Client12ScreencasterE@Base 0.7.90
 _ZTIN11GreenIsland6Client12TouchPrivateE@Base 0.7.90
 _ZTIN11GreenIsland6Client13BufferPrivateE@Base 0.7.90
 _ZTIN11GreenIsland6Client13OutputPrivateE@Base 0.7.90
 _ZTIN11GreenIsland6Client13RegionPrivateE@Base 0.7.90
 _ZTIN11GreenIsland6Client13ScreenshooterE@Base 0.7.90
 _ZTIN11GreenIsland6Client14PointerPrivateE@Base 0.7.90
 _ZTIN11GreenIsland6Client14ShmPoolPrivateE@Base 0.7.90
 _ZTIN11GreenIsland6Client14SurfacePrivateE@Base 0.7.90
 _ZTIN11GreenIsland6Client15FullScreenShellE@Base 0.7.90
 _ZTIN11GreenIsland6Client15KeyboardPrivateE@Base 0.7.90
 _ZTIN11GreenIsland6Client15RegistryPrivateE@Base 0.7.90
 _ZTIN11GreenIsland6Client16ClientConnectionE@Base 0.7.90
 _ZTIN11GreenIsland6Client17CompositorPrivateE@Base 0.7.90
 _ZTIN11GreenIsland6Client17ScreencastPrivateE@Base 0.7.90
 _ZTIN11GreenIsland6Client17ScreenshotPrivateE@Base 0.7.90
 _ZTIN11GreenIsland6Client18CursorThemePrivateE@Base 0.7.90
 _ZTIN11GreenIsland6Client19ScreencasterPrivateE@Base 0.7.90
 _ZTIN11GreenIsland6Client20ScreenshooterPrivateE@Base 0.7.90
 _ZTIN11GreenIsland6Client22FullScreenShellPrivateE@Base 0.7.90
 _ZTIN11GreenIsland6Client23ClientConnectionPrivateE@Base 0.7.90
 _ZTIN11GreenIsland6Client3ShmE@Base 0.7.90
 _ZTIN11GreenIsland6Client4SeatE@Base 0.7.90
 _ZTIN11GreenIsland6Client5TouchE@Base 0.7.90
 _ZTIN11GreenIsland6Client6BufferE@Base 0.7.90
 _ZTIN11GreenIsland6Client6OutputE@Base 0.7.90
 _ZTIN11GreenIsland6Client6RegionE@Base 0.7.90
 _ZTIN11GreenIsland6Client7PointerE@Base 0.7.90
 _ZTIN11GreenIsland6Client7ShmPoolE@Base 0.7.90
 _ZTIN11GreenIsland6Client7SurfaceE@Base 0.7.90
 _ZTIN11GreenIsland6Client8KeyboardE@Base 0.7.90
 _ZTIN11GreenIsland6Client8RegistryE@Base 0.7.90
 _ZTSN11GreenIsland6Client10CompositorE@Base 0.7.90
 _ZTSN11GreenIsland6Client10ScreencastE@Base 0.7.90
 _ZTSN11GreenIsland6Client10ScreenshotE@Base 0.7.90
 _ZTSN11GreenIsland6Client10ShmPrivateE@Base 0.7.90
 _ZTSN11GreenIsland6Client11CursorThemeE@Base 0.7.90
 _ZTSN11GreenIsland6Client11SeatPrivateE@Base 0.7.90
 _ZTSN11GreenIsland6Client12ScreencasterE@Base 0.7.90
 _ZTSN11GreenIsland6Client12TouchPrivateE@Base 0.7.90
 _ZTSN11GreenIsland6Client13BufferPrivateE@Base 0.7.90
 _ZTSN11GreenIsland6Client13OutputPrivateE@Base 0.7.90
 _ZTSN11GreenIsland6Client13RegionPrivateE@Base 0.7.90
 _ZTSN11GreenIsland6Client13ScreenshooterE@Base 0.7.90
 _ZTSN11GreenIsland6Client14PointerPrivateE@Base 0.7.90
 _ZTSN11GreenIsland6Client14ShmPoolPrivateE@Base 0.7.90
 _ZTSN11GreenIsland6Client14SurfacePrivateE@Base 0.7.90
 _ZTSN11GreenIsland6Client15FullScreenShellE@Base 0.7.90
 _ZTSN11GreenIsland6Client15KeyboardPrivateE@Base 0.7.90
 _ZTSN11GreenIsland6Client15RegistryPrivateE@Base 0.7.90
 _ZTSN11GreenIsland6Client16ClientConnectionE@Base 0.7.90
 _ZTSN11GreenIsland6Client17CompositorPrivateE@Base 0.7.90
 _ZTSN11GreenIsland6Client17ScreencastPrivateE@Base 0.7.90
 _ZTSN11GreenIsland6Client17ScreenshotPrivateE@Base 0.7.90
 _ZTSN11GreenIsland6Client18CursorThemePrivateE@Base 0.7.90
 _ZTSN11GreenIsland6Client19ScreencasterPrivateE@Base 0.7.90
 _ZTSN11GreenIsland6Client20ScreenshooterPrivateE@Base 0.7.90
 _ZTSN11GreenIsland6Client22FullScreenShellPrivateE@Base 0.7.90
 _ZTSN11GreenIsland6Client23ClientConnectionPrivateE@Base 0.7.90
 _ZTSN11GreenIsland6Client3ShmE@Base 0.7.90
 _ZTSN11GreenIsland6Client4SeatE@Base 0.7.90
 _ZTSN11GreenIsland6Client5TouchE@Base 0.7.90
 _ZTSN11GreenIsland6Client6BufferE@Base 0.7.90
 _ZTSN11GreenIsland6Client6OutputE@Base 0.7.90
 _ZTSN11GreenIsland6Client6RegionE@Base 0.7.90
 _ZTSN11GreenIsland6Client7PointerE@Base 0.7.90
 _ZTSN11GreenIsland6Client7ShmPoolE@Base 0.7.90
 _ZTSN11GreenIsland6Client7SurfaceE@Base 0.7.90
 _ZTSN11GreenIsland6Client8KeyboardE@Base 0.7.90
 _ZTSN11GreenIsland6Client8RegistryE@Base 0.7.90
 _ZTVN11GreenIsland6Client10CompositorE@Base 0.7.90
 _ZTVN11GreenIsland6Client10ScreencastE@Base 0.7.90
 _ZTVN11GreenIsland6Client10ScreenshotE@Base 0.7.90
 _ZTVN11GreenIsland6Client10ShmPrivateE@Base 0.7.90
 _ZTVN11GreenIsland6Client11CursorThemeE@Base 0.7.90
 _ZTVN11GreenIsland6Client11SeatPrivateE@Base 0.7.90
 _ZTVN11GreenIsland6Client12ScreencasterE@Base 0.7.90
 _ZTVN11GreenIsland6Client12TouchPrivateE@Base 0.7.90
 _ZTVN11GreenIsland6Client13BufferPrivateE@Base 0.7.90
 _ZTVN11GreenIsland6Client13OutputPrivateE@Base 0.7.90
 _ZTVN11GreenIsland6Client13RegionPrivateE@Base 0.7.90
 _ZTVN11GreenIsland6Client13ScreenshooterE@Base 0.7.90
 _ZTVN11GreenIsland6Client14PointerPrivateE@Base 0.7.90
 _ZTVN11GreenIsland6Client14ShmPoolPrivateE@Base 0.7.90
 _ZTVN11GreenIsland6Client14SurfacePrivateE@Base 0.7.90
 _ZTVN11GreenIsland6Client15FullScreenShellE@Base 0.7.90
 _ZTVN11GreenIsland6Client15KeyboardPrivateE@Base 0.7.90
 _ZTVN11GreenIsland6Client15RegistryPrivateE@Base 0.7.90
 _ZTVN11GreenIsland6Client16ClientConnectionE@Base 0.7.90
 _ZTVN11GreenIsland6Client17CompositorPrivateE@Base 0.7.90
 _ZTVN11GreenIsland6Client17ScreencastPrivateE@Base 0.7.90
 _ZTVN11GreenIsland6Client17ScreenshotPrivateE@Base 0.7.90
 _ZTVN11GreenIsland6Client18CursorThemePrivateE@Base 0.7.90
 _ZTVN11GreenIsland6Client19ScreencasterPrivateE@Base 0.7.90
 _ZTVN11GreenIsland6Client20ScreenshooterPrivateE@Base 0.7.90
 _ZTVN11GreenIsland6Client22FullScreenShellPrivateE@Base 0.7.90
 _ZTVN11GreenIsland6Client23ClientConnectionPrivateE@Base 0.7.90
 _ZTVN11GreenIsland6Client3ShmE@Base 0.7.90
 _ZTVN11GreenIsland6Client4SeatE@Base 0.7.90
 _ZTVN11GreenIsland6Client5TouchE@Base 0.7.90
 _ZTVN11GreenIsland6Client6BufferE@Base 0.7.90
 _ZTVN11GreenIsland6Client6OutputE@Base 0.7.90
 _ZTVN11GreenIsland6Client6RegionE@Base 0.7.90
 _ZTVN11GreenIsland6Client7PointerE@Base 0.7.90
 _ZTVN11GreenIsland6Client7ShmPoolE@Base 0.7.90
 _ZTVN11GreenIsland6Client7SurfaceE@Base 0.7.90
 _ZTVN11GreenIsland6Client8KeyboardE@Base 0.7.90
 _ZTVN11GreenIsland6Client8RegistryE@Base 0.7.90
 _wl_fullscreen_shell_interface@Base 0.7.90
 _wl_fullscreen_shell_mode_feedback_interface@Base 0.7.90
 greenisland_screencast_interface@Base 0.7.90
 greenisland_screencaster_interface@Base 0.7.90
 greenisland_screenshooter_interface@Base 0.7.90
 greenisland_screenshot_interface@Base 0.7.90
 (c++)"non-virtual thunk to GreenIsland::Client::FullScreenShellPrivate::fullscreen_shell_capability(unsigned int)@Base" 0.7.90
 (c++)"non-virtual thunk to GreenIsland::Client::KeyboardPrivate::keyboard_enter(unsigned int, wl_surface*, wl_array*)@Base" 0.7.90
 (c++)"non-virtual thunk to GreenIsland::Client::KeyboardPrivate::keyboard_key(unsigned int, unsigned int, unsigned int, unsigned int)@Base" 0.7.90
 (c++)"non-virtual thunk to GreenIsland::Client::KeyboardPrivate::keyboard_keymap(unsigned int, int, unsigned int)@Base" 0.7.90
 (c++)"non-virtual thunk to GreenIsland::Client::KeyboardPrivate::keyboard_leave(unsigned int, wl_surface*)@Base" 0.7.90
 (c++)"non-virtual thunk to GreenIsland::Client::KeyboardPrivate::keyboard_modifiers(unsigned int, unsigned int, unsigned int, unsigned int, unsigned int)@Base" 0.7.90
 (c++)"non-virtual thunk to GreenIsland::Client::KeyboardPrivate::keyboard_repeat_info(int, int)@Base" 0.7.90
 (c++)"non-virtual thunk to GreenIsland::Client::KeyboardPrivate::~KeyboardPrivate()@Base" 0.7.90
 (c++)"non-virtual thunk to GreenIsland::Client::OutputPrivate::output_done()@Base" 0.7.90
 (c++)"non-virtual thunk to GreenIsland::Client::OutputPrivate::output_geometry(int, int, int, int, int, QString const&, QString const&, int)@Base" 0.7.90
 (c++)"non-virtual thunk to GreenIsland::Client::OutputPrivate::output_mode(unsigned int, int, int, int)@Base" 0.7.90
 (c++)"non-virtual thunk to GreenIsland::Client::OutputPrivate::output_scale(int)@Base" 0.7.90
 (c++)"non-virtual thunk to GreenIsland::Client::PointerPrivate::pointer_axis(unsigned int, unsigned int, int)@Base" 0.7.90
 (c++)"non-virtual thunk to GreenIsland::Client::PointerPrivate::pointer_button(unsigned int, unsigned int, unsigned int, unsigned int)@Base" 0.7.90
 (c++)"non-virtual thunk to GreenIsland::Client::PointerPrivate::pointer_enter(unsigned int, wl_surface*, int, int)@Base" 0.7.90
 (c++)"non-virtual thunk to GreenIsland::Client::PointerPrivate::pointer_leave(unsigned int, wl_surface*)@Base" 0.7.90
 (c++)"non-virtual thunk to GreenIsland::Client::PointerPrivate::pointer_motion(unsigned int, int, int)@Base" 0.7.90
 (c++)"non-virtual thunk to GreenIsland::Client::PointerPrivate::~PointerPrivate()@Base" 0.7.90
 (c++)"non-virtual thunk to GreenIsland::Client::ScreencastPrivate::screencast_cancelled(wl_buffer*)@Base" 0.7.90
 (c++)"non-virtual thunk to GreenIsland::Client::ScreencastPrivate::screencast_failed(int, wl_buffer*)@Base" 0.7.90
 (c++)"non-virtual thunk to GreenIsland::Client::ScreencastPrivate::screencast_frame(wl_buffer*, unsigned int, int)@Base" 0.7.90
 (c++)"non-virtual thunk to GreenIsland::Client::ScreencastPrivate::screencast_setup(int, int, int, int)@Base" 0.7.90
 (c++)"non-virtual thunk to GreenIsland::Client::ScreencastPrivate::~ScreencastPrivate()@Base" 0.7.90
 (c++)"non-virtual thunk to GreenIsland::Client::ScreencasterPrivate::~ScreencasterPrivate()@Base" 0.7.90
 (c++)"non-virtual thunk to GreenIsland::Client::ScreenshooterPrivate::~ScreenshooterPrivate()@Base" 0.7.90
 (c++)"non-virtual thunk to GreenIsland::Client::ScreenshotPrivate::screenshot_done()@Base" 0.7.90
 (c++)"non-virtual thunk to GreenIsland::Client::ScreenshotPrivate::screenshot_failed(int)@Base" 0.7.90
 (c++)"non-virtual thunk to GreenIsland::Client::ScreenshotPrivate::screenshot_setup(int, int, int, int)@Base" 0.7.90
 (c++)"non-virtual thunk to GreenIsland::Client::ScreenshotPrivate::~ScreenshotPrivate()@Base" 0.7.90
 (c++)"non-virtual thunk to GreenIsland::Client::SeatPrivate::seat_capabilities(unsigned int)@Base" 0.7.90
 (c++)"non-virtual thunk to GreenIsland::Client::SeatPrivate::seat_name(QString const&)@Base" 0.7.90
 (c++)"non-virtual thunk to GreenIsland::Client::ShmPoolPrivate::~ShmPoolPrivate()@Base" 0.7.90
 (c++)"non-virtual thunk to GreenIsland::Client::ShmPrivate::shm_format(unsigned int)@Base" 0.7.90
 (c++)"non-virtual thunk to GreenIsland::Client::SurfacePrivate::surface_enter(wl_output*)@Base" 0.7.90
 (c++)"non-virtual thunk to GreenIsland::Client::SurfacePrivate::surface_leave(wl_output*)@Base" 0.7.90
 (c++)"non-virtual thunk to GreenIsland::Client::TouchPrivate::touch_cancel()@Base" 0.7.90
 (c++)"non-virtual thunk to GreenIsland::Client::TouchPrivate::touch_down(unsigned int, unsigned int, wl_surface*, int, int, int)@Base" 0.7.90
 (c++)"non-virtual thunk to GreenIsland::Client::TouchPrivate::touch_frame()@Base" 0.7.90
 (c++)"non-virtual thunk to GreenIsland::Client::TouchPrivate::touch_motion(unsigned int, int, int, int)@Base" 0.7.90
 (c++)"non-virtual thunk to GreenIsland::Client::TouchPrivate::touch_up(unsigned int, unsigned int, int)@Base" 0.7.90
 (c++)"non-virtual thunk to GreenIsland::Client::TouchPrivate::~TouchPrivate()@Base" 0.7.90
 wl_buffer_interface@Base 0.7.90
 wl_callback_interface@Base 0.7.90
 wl_compositor_interface@Base 0.7.90
 wl_data_device_interface@Base 0.7.90
 wl_data_device_manager_interface@Base 0.7.90
 wl_data_offer_interface@Base 0.7.90
 wl_data_source_interface@Base 0.7.90
 wl_display_interface@Base 0.7.90
 wl_keyboard_interface@Base 0.7.90
 wl_output_interface@Base 0.7.90
 wl_pointer_interface@Base 0.7.90
 wl_region_interface@Base 0.7.90
 wl_registry_interface@Base 0.7.90
 wl_seat_interface@Base 0.7.90
 wl_shell_interface@Base 0.7.90
 wl_shell_surface_interface@Base 0.7.90
 wl_shm_interface@Base 0.7.90
 wl_shm_pool_interface@Base 0.7.90
 wl_subcompositor_interface@Base 0.7.90
 wl_subsurface_interface@Base 0.7.90
 wl_surface_interface@Base 0.7.90
 wl_touch_interface@Base 0.7.90
