libGreenIslandCompositor.so.0 libgreenisland-compositor0 #MINVER#
 _ZN12QWaylandDrag10cancelDragEv@Base 0.7.90
 _ZN12QWaylandDrag11dragStartedEv@Base 0.7.90
 _ZN12QWaylandDrag11iconChangedEv@Base 0.7.90
 _ZN12QWaylandDrag11qt_metacallEN11QMetaObject4CallEiPPv@Base 0.7.90
 _ZN12QWaylandDrag11qt_metacastEPKc@Base 0.7.90
 _ZN12QWaylandDrag16staticMetaObjectE@Base 0.7.90
 _ZN12QWaylandDrag4dropEv@Base 0.7.90
 _ZN12QWaylandDrag8dragMoveEP15QWaylandSurfaceRK7QPointF@Base 0.7.90
 _ZN12QWaylandDragC1EP19QWaylandInputDevice@Base 0.7.90
 _ZN12QWaylandDragC2EP19QWaylandInputDevice@Base 0.7.90
 _ZN12QWaylandView10setSurfaceEP15QWaylandSurface@Base 0.7.90
 _ZN12QWaylandView11qt_metacallEN11QMetaObject4CallEiPPv@Base 0.7.90
 _ZN12QWaylandView11qt_metacastEPKc@Base 0.7.90
 _ZN12QWaylandView13currentBufferEv@Base 0.7.90
 _ZN12QWaylandView13currentDamageEv@Base 0.7.90
 _ZN12QWaylandView13outputChangedEv@Base 0.7.90
 _ZN12QWaylandView13setBufferLockEb@Base 0.7.90
 _ZN12QWaylandView14surfaceChangedEv@Base 0.7.90
 _ZN12QWaylandView16staticMetaObjectE@Base 0.7.90
 _ZN12QWaylandView16surfaceDestroyedEv@Base 0.7.90
 _ZN12QWaylandView17bufferLockChangedEv@Base 0.7.90
 _ZN12QWaylandView20discardCurrentBufferEv@Base 0.7.90
 _ZN12QWaylandView22setDiscardFrontBuffersEb@Base 0.7.90
 _ZN12QWaylandView26discardFrontBuffersChangedEv@Base 0.7.90
 _ZN12QWaylandView6attachERK17QWaylandBufferRefRK7QRegion@Base 0.7.90
 _ZN12QWaylandView7advanceEv@Base 0.7.90
 _ZN12QWaylandView9setOutputEP14QWaylandOutput@Base 0.7.90
 _ZN12QWaylandViewC1EP7QObjectS1_@Base 0.7.90
 _ZN12QWaylandViewC2EP7QObjectS1_@Base 0.7.90
 _ZN12QWaylandViewD0Ev@Base 0.7.90
 _ZN12QWaylandViewD1Ev@Base 0.7.90
 _ZN12QWaylandViewD2Ev@Base 0.7.90
 _ZN13QWaylandShell10initializeEv@Base 0.7.90
 _ZN13QWaylandShell11qt_metacallEN11QMetaObject4CallEiPPv@Base 0.7.90
 _ZN13QWaylandShell11qt_metacastEPKc@Base 0.7.90
 _ZN13QWaylandShell13interfaceNameEv@Base 0.7.90
 _ZN13QWaylandShell16staticMetaObjectE@Base 0.7.90
 _ZN13QWaylandShell18createShellSurfaceEP15QWaylandSurfaceP14QWaylandClientj@Base 0.7.90
 _ZN13QWaylandShell9interfaceEv@Base 0.7.90
 _ZN13QWaylandShellC1EP18QWaylandCompositor@Base 0.7.90
 _ZN13QWaylandShellC1Ev@Base 0.7.90
 _ZN13QWaylandShellC2EP18QWaylandCompositor@Base 0.7.90
 _ZN13QWaylandShellC2Ev@Base 0.7.90
 _ZN13QWaylandTouch11qt_metacallEN11QMetaObject4CallEiPPv@Base 0.7.90
 _ZN13QWaylandTouch11qt_metacastEPKc@Base 0.7.90
 _ZN13QWaylandTouch14focusDestroyedEPv@Base 0.7.90
 _ZN13QWaylandTouch14sendFrameEventEv@Base 0.7.90
 _ZN13QWaylandTouch15sendCancelEventEv@Base 0.7.90
 _ZN13QWaylandTouch16staticMetaObjectE@Base 0.7.90
 _ZN13QWaylandTouch17mouseFocusChangedEP12QWaylandViewS1_@Base 0.7.90
 _ZN13QWaylandTouch18sendFullTouchEventEP11QTouchEvent@Base 0.7.90
 _ZN13QWaylandTouch19sendTouchPointEventEiRK7QPointFN2Qt15TouchPointStateE@Base 0.7.90
 _ZN13QWaylandTouch9addClientEP14QWaylandClientjj@Base 0.7.90
 _ZN13QWaylandTouchC1EP19QWaylandInputDeviceP7QObject@Base 0.7.90
 _ZN13QWaylandTouchC2EP19QWaylandInputDeviceP7QObject@Base 0.7.90
 _ZN14QWaylandClient11qt_metacallEN11QMetaObject4CallEiPPv@Base 0.7.90
 _ZN14QWaylandClient11qt_metacastEPKc@Base 0.7.90
 _ZN14QWaylandClient12fromWlClientEP18QWaylandCompositorP9wl_client@Base 0.7.90
 _ZN14QWaylandClient16staticMetaObjectE@Base 0.7.90
 _ZN14QWaylandClient4killEi@Base 0.7.90
 _ZN14QWaylandClient5closeEv@Base 0.7.90
 _ZN14QWaylandClientC1EP18QWaylandCompositorP9wl_client@Base 0.7.90
 _ZN14QWaylandClientC2EP18QWaylandCompositorP9wl_client@Base 0.7.90
 _ZN14QWaylandClientD0Ev@Base 0.7.90
 _ZN14QWaylandClientD1Ev@Base 0.7.90
 _ZN14QWaylandClientD2Ev@Base 0.7.90
 _ZN14QWaylandKeymapC1ERK7QStringS2_S2_S2_S2_@Base 0.7.90
 _ZN14QWaylandKeymapC2ERK7QStringS2_S2_S2_S2_@Base 0.7.90
 _ZN14QWaylandObject12addExtensionEP17QWaylandExtension@Base 0.7.90
 _ZN14QWaylandObject15removeExtensionEP17QWaylandExtension@Base 0.7.90
 _ZN14QWaylandObject9extensionEPK12wl_interface@Base 0.7.90
 _ZN14QWaylandObject9extensionERK10QByteArray@Base 0.7.90
 _ZN14QWaylandObjectC1EP7QObject@Base 0.7.90
 _ZN14QWaylandObjectC1ER14QObjectPrivateP7QObject@Base 0.7.90
 _ZN14QWaylandObjectC2EP7QObject@Base 0.7.90
 _ZN14QWaylandObjectC2ER14QObjectPrivateP7QObject@Base 0.7.90
 _ZN14QWaylandObjectD0Ev@Base 0.7.90
 _ZN14QWaylandObjectD1Ev@Base 0.7.90
 _ZN14QWaylandObjectD2Ev@Base 0.7.90
 _ZN14QWaylandOutput10initializeEv@Base 0.7.90
 _ZN14QWaylandOutput11qt_metacallEN11QMetaObject4CallEiPPv@Base 0.7.90
 _ZN14QWaylandOutput11qt_metacastEPKc@Base 0.7.90
 _ZN14QWaylandOutput11setPositionERK6QPoint@Base 0.7.90
 _ZN14QWaylandOutput11setSubpixelERKNS_8SubpixelE@Base 0.7.90
 _ZN14QWaylandOutput12frameStartedEv@Base 0.7.90
 _ZN14QWaylandOutput12fromResourceEP11wl_resource@Base 0.7.90
 _ZN14QWaylandOutput12modelChangedEv@Base 0.7.90
 _ZN14QWaylandOutput12setTransformERKNS_9TransformE@Base 0.7.90
 _ZN14QWaylandOutput12surfaceEnterEP15QWaylandSurface@Base 0.7.90
 _ZN14QWaylandOutput12surfaceLeaveEP15QWaylandSurface@Base 0.7.90
 _ZN14QWaylandOutput13setCompositorEP18QWaylandCompositor@Base 0.7.90
 _ZN14QWaylandOutput13windowChangedEv@Base 0.7.90
 _ZN14QWaylandOutput14handleSetWidthEi@Base 0.7.90
 _ZN14QWaylandOutput14setCurrentModeERK5QSized@Base 0.7.90
 _ZN14QWaylandOutput14setScaleFactorEi@Base 0.7.90
 _ZN14QWaylandOutput15geometryChangedEv@Base 0.7.90
 _ZN14QWaylandOutput15handleSetHeightEi@Base 0.7.90
 _ZN14QWaylandOutput15positionChangedEv@Base 0.7.90
 _ZN14QWaylandOutput15setManufacturerERK7QString@Base 0.7.90
 _ZN14QWaylandOutput15setPhysicalSizeERK5QSize@Base 0.7.90
 _ZN14QWaylandOutput15subpixelChangedEv@Base 0.7.90
 _ZN14QWaylandOutput15windowDestroyedEv@Base 0.7.90
 _ZN14QWaylandOutput16staticMetaObjectE@Base 0.7.90
 _ZN14QWaylandOutput16transformChangedEv@Base 0.7.90
 _ZN14QWaylandOutput17compositorChangedEv@Base 0.7.90
 _ZN14QWaylandOutput18currentModeChangedEv@Base 0.7.90
 _ZN14QWaylandOutput18scaleFactorChangedEv@Base 0.7.90
 _ZN14QWaylandOutput18sendFrameCallbacksEv@Base 0.7.90
 _ZN14QWaylandOutput19manufacturerChangedEv@Base 0.7.90
 _ZN14QWaylandOutput19physicalSizeChangedEv@Base 0.7.90
 _ZN14QWaylandOutput20setAvailableGeometryERK5QRect@Base 0.7.90
 _ZN14QWaylandOutput20setSizeFollowsWindowEb@Base 0.7.90
 _ZN14QWaylandOutput21handleWindowDestroyedEv@Base 0.7.90
 _ZN14QWaylandOutput24availableGeometryChangedEv@Base 0.7.90
 _ZN14QWaylandOutput24sizeFollowsWindowChangedEv@Base 0.7.90
 _ZN14QWaylandOutput30physicalSizeFollowsSizeChangedEv@Base 0.7.90
 _ZN14QWaylandOutput4ModeC1ERKS0_@Base 0.7.90
 _ZN14QWaylandOutput4ModeC1Ev@Base 0.7.90
 _ZN14QWaylandOutput4ModeC2ERKS0_@Base 0.7.90
 _ZN14QWaylandOutput4ModeC2Ev@Base 0.7.90
 _ZN14QWaylandOutput4ModeeqERKS0_@Base 0.7.90
 _ZN14QWaylandOutput5eventEP6QEvent@Base 0.7.90
 _ZN14QWaylandOutput6updateEv@Base 0.7.90
 _ZN14QWaylandOutput7addModeERK5QSize6QFlagsINS_4Mode4FlagEEd@Base 0.7.90
 _ZN14QWaylandOutput8setModelERK7QString@Base 0.7.90
 _ZN14QWaylandOutput9modeAddedEv@Base 0.7.90
 _ZN14QWaylandOutput9setWindowEP7QWindow@Base 0.7.90
 _ZN14QWaylandOutputC1EP18QWaylandCompositorP7QWindow@Base 0.7.90
 _ZN14QWaylandOutputC1Ev@Base 0.7.90
 _ZN14QWaylandOutputC2EP18QWaylandCompositorP7QWindow@Base 0.7.90
 _ZN14QWaylandOutputC2Ev@Base 0.7.90
 _ZN14QWaylandOutputD0Ev@Base 0.7.90
 _ZN14QWaylandOutputD1Ev@Base 0.7.90
 _ZN14QWaylandOutputD2Ev@Base 0.7.90
 _ZN15QWaylandPointer10sendButtonEP11wl_resourcejN2Qt11MouseButtonEj@Base 0.7.90
 _ZN15QWaylandPointer11qt_metacallEN11QMetaObject4CallEiPPv@Base 0.7.90
 _ZN15QWaylandPointer11qt_metacastEPKc@Base 0.7.90
 _ZN15QWaylandPointer13outputChangedEv@Base 0.7.90
 _ZN15QWaylandPointer14focusDestroyedEPv@Base 0.7.90
 _ZN15QWaylandPointer15toWaylandButtonEN2Qt11MouseButtonE@Base 0.7.90
 _ZN15QWaylandPointer16staticMetaObjectE@Base 0.7.90
 _ZN15QWaylandPointer18sendMouseMoveEventEP12QWaylandViewRK7QPointFS4_@Base 0.7.90
 _ZN15QWaylandPointer19pointerFocusChangedEP12QWaylandViewS1_@Base 0.7.90
 _ZN15QWaylandPointer19sendMousePressEventEN2Qt11MouseButtonE@Base 0.7.90
 _ZN15QWaylandPointer19sendMouseWheelEventEN2Qt11OrientationEi@Base 0.7.90
 _ZN15QWaylandPointer20buttonPressedChangedEv@Base 0.7.90
 _ZN15QWaylandPointer21sendMouseReleaseEventEN2Qt11MouseButtonE@Base 0.7.90
 _ZN15QWaylandPointer9addClientEP14QWaylandClientjj@Base 0.7.90
 _ZN15QWaylandPointer9setOutputEP14QWaylandOutput@Base 0.7.90
 _ZN15QWaylandPointerC1EP19QWaylandInputDeviceP7QObject@Base 0.7.90
 _ZN15QWaylandPointerC2EP19QWaylandInputDeviceP7QObject@Base 0.7.90
 _ZN15QWaylandSurface10childAddedEPS_@Base 0.7.90
 _ZN15QWaylandSurface10initializeEP18QWaylandCompositorP14QWaylandClientji@Base 0.7.90
 _ZN15QWaylandSurface11qt_metacallEN11QMetaObject4CallEiPPv@Base 0.7.90
 _ZN15QWaylandSurface11qt_metacastEPKc@Base 0.7.90
 _ZN15QWaylandSurface11sizeChangedEv@Base 0.7.90
 _ZN15QWaylandSurface12frameStartedEv@Base 0.7.90
 _ZN15QWaylandSurface12fromResourceEP11wl_resource@Base 0.7.90
 _ZN15QWaylandSurface13mappedChangedEv@Base 0.7.90
 _ZN15QWaylandSurface13originChangedEv@Base 0.7.90
 _ZN15QWaylandSurface13parentChangedEPS_S0_@Base 0.7.90
 _ZN15QWaylandSurface15updateSelectionEv@Base 0.7.90
 _ZN15QWaylandSurface16staticMetaObjectE@Base 0.7.90
 _ZN15QWaylandSurface16surfaceDestroyedEv@Base 0.7.90
 _ZN15QWaylandSurface17setThrottlingViewEP12QWaylandView@Base 0.7.90
 _ZN15QWaylandSurface18offsetForNextFrameERK6QPoint@Base 0.7.90
 _ZN15QWaylandSurface18sendFrameCallbacksEv@Base 0.7.90
 _ZN15QWaylandSurface19markAsCursorSurfaceEb@Base 0.7.90
 _ZN15QWaylandSurface20subsurfacePlaceAboveEPS_@Base 0.7.90
 _ZN15QWaylandSurface20subsurfacePlaceBelowEPS_@Base 0.7.90
 _ZN15QWaylandSurface25contentOrientationChangedEv@Base 0.7.90
 _ZN15QWaylandSurface25subsurfacePositionChangedERK6QPoint@Base 0.7.90
 _ZN15QWaylandSurface4pongEv@Base 0.7.90
 _ZN15QWaylandSurface6redrawEv@Base 0.7.90
 _ZN15QWaylandSurface7damagedERK7QRegion@Base 0.7.90
 _ZN15QWaylandSurface7destroyEv@Base 0.7.90
 _ZN15QWaylandSurface9configureEb@Base 0.7.90
 _ZN15QWaylandSurfaceC1EP18QWaylandCompositorP14QWaylandClientji@Base 0.7.90
 _ZN15QWaylandSurfaceC1ER22QWaylandSurfacePrivate@Base 0.7.90
 _ZN15QWaylandSurfaceC1Ev@Base 0.7.90
 _ZN15QWaylandSurfaceC2EP18QWaylandCompositorP14QWaylandClientji@Base 0.7.90
 _ZN15QWaylandSurfaceC2ER22QWaylandSurfacePrivate@Base 0.7.90
 _ZN15QWaylandSurfaceC2Ev@Base 0.7.90
 _ZN15QWaylandSurfaceD0Ev@Base 0.7.90
 _ZN15QWaylandSurfaceD1Ev@Base 0.7.90
 _ZN15QWaylandSurfaceD2Ev@Base 0.7.90
 _ZN16QWaylandKeyboard11qt_metacallEN11QMetaObject4CallEiPPv@Base 0.7.90
 _ZN16QWaylandKeyboard11qt_metacastEPKc@Base 0.7.90
 _ZN16QWaylandKeyboard12focusChangedEP15QWaylandSurface@Base 0.7.90
 _ZN16QWaylandKeyboard13setRepeatRateEj@Base 0.7.90
 _ZN16QWaylandKeyboard14focusDestroyedEPv@Base 0.7.90
 _ZN16QWaylandKeyboard14setRepeatDelayEj@Base 0.7.90
 _ZN16QWaylandKeyboard16sendKeyModifiersEP14QWaylandClientj@Base 0.7.90
 _ZN16QWaylandKeyboard16staticMetaObjectE@Base 0.7.90
 _ZN16QWaylandKeyboard17repeatRateChangedEj@Base 0.7.90
 _ZN16QWaylandKeyboard17sendKeyPressEventEj@Base 0.7.90
 _ZN16QWaylandKeyboard18repeatDelayChangedEj@Base 0.7.90
 _ZN16QWaylandKeyboard19sendKeyReleaseEventEj@Base 0.7.90
 _ZN16QWaylandKeyboard8setFocusEP15QWaylandSurface@Base 0.7.90
 _ZN16QWaylandKeyboard9addClientEP14QWaylandClientjj@Base 0.7.90
 _ZN16QWaylandKeyboard9setKeymapERK14QWaylandKeymap@Base 0.7.90
 _ZN16QWaylandKeyboardC1EP19QWaylandInputDeviceP7QObject@Base 0.7.90
 _ZN16QWaylandKeyboardC2EP19QWaylandInputDeviceP7QObject@Base 0.7.90
 _ZN17QWaylandBufferRefC1EPN9QtWayland13SurfaceBufferE@Base 0.7.90
 _ZN17QWaylandBufferRefC1ERKS_@Base 0.7.90
 _ZN17QWaylandBufferRefC1Ev@Base 0.7.90
 _ZN17QWaylandBufferRefC2EPN9QtWayland13SurfaceBufferE@Base 0.7.90
 _ZN17QWaylandBufferRefC2ERKS_@Base 0.7.90
 _ZN17QWaylandBufferRefC2Ev@Base 0.7.90
 _ZN17QWaylandBufferRefD1Ev@Base 0.7.90
 _ZN17QWaylandBufferRefD2Ev@Base 0.7.90
 _ZN17QWaylandBufferRefaSERKS_@Base 0.7.90
 _ZN17QWaylandBufferRefeqERKS_@Base 0.7.90
 _ZN17QWaylandBufferRefneERKS_@Base 0.7.90
 _ZN17QWaylandExtension10initializeEv@Base 0.7.90
 _ZN17QWaylandExtension11qt_metacallEN11QMetaObject4CallEiPPv@Base 0.7.90
 _ZN17QWaylandExtension11qt_metacastEPKc@Base 0.7.90
 _ZN17QWaylandExtension16staticMetaObjectE@Base 0.7.90
 _ZN17QWaylandExtension21setExtensionContainerEP14QWaylandObject@Base 0.7.90
 _ZN17QWaylandExtension5eventEP6QEvent@Base 0.7.90
 _ZN17QWaylandExtensionC1EP14QWaylandObject@Base 0.7.90
 _ZN17QWaylandExtensionC1EP14QWaylandObjectR24QWaylandExtensionPrivate@Base 0.7.90
 _ZN17QWaylandExtensionC1ER24QWaylandExtensionPrivate@Base 0.7.90
 _ZN17QWaylandExtensionC1Ev@Base 0.7.90
 _ZN17QWaylandExtensionC2EP14QWaylandObject@Base 0.7.90
 _ZN17QWaylandExtensionC2EP14QWaylandObjectR24QWaylandExtensionPrivate@Base 0.7.90
 _ZN17QWaylandExtensionC2ER24QWaylandExtensionPrivate@Base 0.7.90
 _ZN17QWaylandExtensionC2Ev@Base 0.7.90
 _ZN17QWaylandExtensionD0Ev@Base 0.7.90
 _ZN17QWaylandExtensionD1Ev@Base 0.7.90
 _ZN17QWaylandExtensionD2Ev@Base 0.7.90
 _ZN17QWaylandQuickItem10beforeSyncEv@Base 0.7.90
 _ZN17QWaylandQuickItem10setSurfaceEP15QWaylandSurface@Base 0.7.90
 _ZN17QWaylandQuickItem10touchEventEP11QTouchEvent@Base 0.7.90
 _ZN17QWaylandQuickItem10updateSizeEv@Base 0.7.90
 _ZN17QWaylandQuickItem10wheelEventEP11QWheelEvent@Base 0.7.90
 _ZN17QWaylandQuickItem11qt_metacallEN11QMetaObject4CallEiPPv@Base 0.7.90
 _ZN17QWaylandQuickItem11qt_metacastEPKc@Base 0.7.90
 _ZN17QWaylandQuickItem12mouseReleaseEv@Base 0.7.90
 _ZN17QWaylandQuickItem12updateBufferEb@Base 0.7.90
 _ZN17QWaylandQuickItem12updateWindowEv@Base 0.7.90
 _ZN17QWaylandQuickItem13keyPressEventEP9QKeyEvent@Base 0.7.90
 _ZN17QWaylandQuickItem13originChangedEv@Base 0.7.90
 _ZN17QWaylandQuickItem13parentChangedEP15QWaylandSurfaceS1_@Base 0.7.90
 _ZN17QWaylandQuickItem14hoverMoveEventEP11QHoverEvent@Base 0.7.90
 _ZN17QWaylandQuickItem14mouseMoveEventEP11QMouseEvent@Base 0.7.90
 _ZN17QWaylandQuickItem14surfaceChangedEv@Base 0.7.90
 _ZN17QWaylandQuickItem15hoverEnterEventEP11QHoverEvent@Base 0.7.90
 _ZN17QWaylandQuickItem15hoverLeaveEventEP11QHoverEvent@Base 0.7.90
 _ZN17QWaylandQuickItem15keyReleaseEventEP9QKeyEvent@Base 0.7.90
 _ZN17QWaylandQuickItem15mousePressEventEP11QMouseEvent@Base 0.7.90
 _ZN17QWaylandQuickItem15setFocusOnClickEb@Base 0.7.90
 _ZN17QWaylandQuickItem15setPaintEnabledEb@Base 0.7.90
 _ZN17QWaylandQuickItem15updatePaintNodeEP7QSGNodePN10QQuickItem19UpdatePaintNodeDataE@Base 0.7.90
 _ZN17QWaylandQuickItem16mouseUngrabEventEv@Base 0.7.90
 _ZN17QWaylandQuickItem16staticMetaObjectE@Base 0.7.90
 _ZN17QWaylandQuickItem16surfaceDestroyedEv@Base 0.7.90
 _ZN17QWaylandQuickItem17mouseReleaseEventEP11QMouseEvent@Base 0.7.90
 _ZN17QWaylandQuickItem19focusOnClickChangedEv@Base 0.7.90
 _ZN17QWaylandQuickItem19inputRegionContainsERK7QPointF@Base 0.7.90
 _ZN17QWaylandQuickItem19surfaceChangedEventEP15QWaylandSurfaceS1_@Base 0.7.90
 _ZN17QWaylandQuickItem20handleSurfaceChangedEv@Base 0.7.90
 _ZN17QWaylandQuickItem20surfaceMappedChangedEv@Base 0.7.90
 _ZN17QWaylandQuickItem21setInputEventsEnabledEb@Base 0.7.90
 _ZN17QWaylandQuickItem21setSizeFollowsSurfaceEb@Base 0.7.90
 _ZN17QWaylandQuickItem21setTouchEventsEnabledEb@Base 0.7.90
 _ZN17QWaylandQuickItem25inputEventsEnabledChangedEv@Base 0.7.90
 _ZN17QWaylandQuickItem25sizeFollowsSurfaceChangedEv@Base 0.7.90
 _ZN17QWaylandQuickItem25touchEventsEnabledChangedEv@Base 0.7.90
 _ZN17QWaylandQuickItem5lowerEv@Base 0.7.90
 _ZN17QWaylandQuickItem5raiseEv@Base 0.7.90
 _ZN17QWaylandQuickItem9mouseMoveERK7QPointF@Base 0.7.90
 _ZN17QWaylandQuickItem9takeFocusEP19QWaylandInputDevice@Base 0.7.90
 _ZN17QWaylandQuickItemC1EP10QQuickItem@Base 0.7.90
 _ZN17QWaylandQuickItemC1ER24QWaylandQuickItemPrivateP10QQuickItem@Base 0.7.90
 _ZN17QWaylandQuickItemC2EP10QQuickItem@Base 0.7.90
 _ZN17QWaylandQuickItemC2ER24QWaylandQuickItemPrivateP10QQuickItem@Base 0.7.90
 _ZN17QWaylandQuickItemD0Ev@Base 0.7.90
 _ZN17QWaylandQuickItemD1Ev@Base 0.7.90
 _ZN17QWaylandQuickItemD2Ev@Base 0.7.90
 _ZN18QWaylandCompositor10nextSerialEv@Base 0.7.90
 _ZN18QWaylandCompositor11qt_metacallEN11QMetaObject4CallEiPPv@Base 0.7.90
 _ZN18QWaylandCompositor11qt_metacastEPKc@Base 0.7.90
 _ZN18QWaylandCompositor13createSurfaceEP14QWaylandClientji@Base 0.7.90
 _ZN18QWaylandCompositor13destroyClientEP14QWaylandClient@Base 0.7.90
 _ZN18QWaylandCompositor13setSocketNameERK10QByteArray@Base 0.7.90
 _ZN18QWaylandCompositor14inputDeviceForEP11QInputEvent@Base 0.7.90
 _ZN18QWaylandCompositor14surfaceCreatedEP15QWaylandSurface@Base 0.7.90
 _ZN18QWaylandCompositor16setDefaultOutputEP14QWaylandOutput@Base 0.7.90
 _ZN18QWaylandCompositor16staticMetaObjectE@Base 0.7.90
 _ZN18QWaylandCompositor17createInputDeviceEv@Base 0.7.90
 _ZN18QWaylandCompositor17createTouchDeviceEP19QWaylandInputDevice@Base 0.7.90
 _ZN18QWaylandCompositor17overrideSelectionEPK9QMimeData@Base 0.7.90
 _ZN18QWaylandCompositor17subsurfaceChangedEP15QWaylandSurfaceS1_@Base 0.7.90
 _ZN18QWaylandCompositor19createPointerDeviceEP19QWaylandInputDevice@Base 0.7.90
 _ZN18QWaylandCompositor20createKeyboardDeviceEP19QWaylandInputDevice@Base 0.7.90
 _ZN18QWaylandCompositor20defaultOutputChangedEv@Base 0.7.90
 _ZN18QWaylandCompositor20processWaylandEventsEv@Base 0.7.90
 _ZN18QWaylandCompositor23destroyClientForSurfaceEP15QWaylandSurface@Base 0.7.90
 _ZN18QWaylandCompositor25defaultInputDeviceChangedEv@Base 0.7.90
 _ZN18QWaylandCompositor25retainedSelectionReceivedEP9QMimeData@Base 0.7.90
 _ZN18QWaylandCompositor25surfaceAboutToBeDestroyedEP15QWaylandSurface@Base 0.7.90
 _ZN18QWaylandCompositor27setRetainedSelectionEnabledEb@Base 0.7.90
 _ZN18QWaylandCompositor34setUseHardwareIntegrationExtensionEb@Base 0.7.90
 _ZN18QWaylandCompositor38useHardwareIntegrationExtensionChangedEv@Base 0.7.90
 _ZN18QWaylandCompositor6createEv@Base 0.7.90
 _ZN18QWaylandCompositorC1EP7QObject@Base 0.7.90
 _ZN18QWaylandCompositorC1ER25QWaylandCompositorPrivateP7QObject@Base 0.7.90
 _ZN18QWaylandCompositorC2EP7QObject@Base 0.7.90
 _ZN18QWaylandCompositorC2ER25QWaylandCompositorPrivateP7QObject@Base 0.7.90
 _ZN18QWaylandCompositorD0Ev@Base 0.7.90
 _ZN18QWaylandCompositorD1Ev@Base 0.7.90
 _ZN18QWaylandCompositorD2Ev@Base 0.7.90
 _ZN18QWaylandInputPanel11qt_metacallEN11QMetaObject4CallEiPPv@Base 0.7.90
 _ZN18QWaylandInputPanel11qt_metacastEPKc@Base 0.7.90
 _ZN18QWaylandInputPanel12focusChangedEv@Base 0.7.90
 _ZN18QWaylandInputPanel13interfaceNameEv@Base 0.7.90
 _ZN18QWaylandInputPanel14visibleChangedEv@Base 0.7.90
 _ZN18QWaylandInputPanel16staticMetaObjectE@Base 0.7.90
 _ZN18QWaylandInputPanel22cursorRectangleChangedEv@Base 0.7.90
 _ZN18QWaylandInputPanel9interfaceEv@Base 0.7.90
 _ZN18QWaylandInputPanelC1EP18QWaylandCompositor@Base 0.7.90
 _ZN18QWaylandInputPanelC2EP18QWaylandCompositor@Base 0.7.90
 _ZN19QWaylandInputDevice11qt_metacallEN11QMetaObject4CallEiPPv@Base 0.7.90
 _ZN19QWaylandInputDevice11qt_metacastEPKc@Base 0.7.90
 _ZN19QWaylandInputDevice13setMouseFocusEP12QWaylandView@Base 0.7.90
 _ZN19QWaylandInputDevice16fromSeatResourceEP11wl_resource@Base 0.7.90
 _ZN19QWaylandInputDevice16sendFullKeyEventEP9QKeyEvent@Base 0.7.90
 _ZN19QWaylandInputDevice16setKeyboardFocusEP15QWaylandSurface@Base 0.7.90
 _ZN19QWaylandInputDevice16staticMetaObjectE@Base 0.7.90
 _ZN19QWaylandInputDevice17mouseFocusChangedEP12QWaylandViewS1_@Base 0.7.90
 _ZN19QWaylandInputDevice17sendKeyPressEventEj@Base 0.7.90
 _ZN19QWaylandInputDevice18sendFullTouchEventEP11QTouchEvent@Base 0.7.90
 _ZN19QWaylandInputDevice18sendMouseMoveEventEP12QWaylandViewRK7QPointFS4_@Base 0.7.90
 _ZN19QWaylandInputDevice19sendKeyReleaseEventEj@Base 0.7.90
 _ZN19QWaylandInputDevice19sendMousePressEventEN2Qt11MouseButtonE@Base 0.7.90
 _ZN19QWaylandInputDevice19sendMouseWheelEventEN2Qt11OrientationEi@Base 0.7.90
 _ZN19QWaylandInputDevice19sendTouchFrameEventEv@Base 0.7.90
 _ZN19QWaylandInputDevice19sendTouchPointEventEiRK7QPointFN2Qt15TouchPointStateE@Base 0.7.90
 _ZN19QWaylandInputDevice20cursorSurfaceRequestEP15QWaylandSurfaceii@Base 0.7.90
 _ZN19QWaylandInputDevice20sendTouchCancelEventEv@Base 0.7.90
 _ZN19QWaylandInputDevice21sendMouseReleaseEventEN2Qt11MouseButtonE@Base 0.7.90
 _ZN19QWaylandInputDevice9setKeymapERK14QWaylandKeymap@Base 0.7.90
 _ZN19QWaylandInputDeviceC1EP18QWaylandCompositor6QFlagsINS_14CapabilityFlagEE@Base 0.7.90
 _ZN19QWaylandInputDeviceC2EP18QWaylandCompositor6QFlagsINS_14CapabilityFlagEE@Base 0.7.90
 _ZN19QWaylandInputDeviceD0Ev@Base 0.7.90
 _ZN19QWaylandInputDeviceD1Ev@Base 0.7.90
 _ZN19QWaylandInputDeviceD2Ev@Base 0.7.90
 _ZN19QWaylandQuickOutput10initializeEv@Base 0.7.90
 _ZN19QWaylandQuickOutput11qt_metacallEN11QMetaObject4CallEiPPv@Base 0.7.90
 _ZN19QWaylandQuickOutput11qt_metacastEPKc@Base 0.7.90
 _ZN19QWaylandQuickOutput13updateStartedEv@Base 0.7.90
 _ZN19QWaylandQuickOutput16doFrameCallbacksEv@Base 0.7.90
 _ZN19QWaylandQuickOutput16staticMetaObjectE@Base 0.7.90
 _ZN19QWaylandQuickOutput25setAutomaticFrameCallbackEb@Base 0.7.90
 _ZN19QWaylandQuickOutput29automaticFrameCallbackChangedEv@Base 0.7.90
 _ZN19QWaylandQuickOutput6updateEv@Base 0.7.90
 _ZN19QWaylandQuickOutputC1EP18QWaylandCompositorP7QWindow@Base 0.7.90
 _ZN19QWaylandQuickOutputC1Ev@Base 0.7.90
 _ZN19QWaylandQuickOutputC2EP18QWaylandCompositorP7QWindow@Base 0.7.90
 _ZN19QWaylandQuickOutputC2Ev@Base 0.7.90
 _ZN20QWaylandQuickSurface11qt_metacallEN11QMetaObject4CallEiPPv@Base 0.7.90
 _ZN20QWaylandQuickSurface11qt_metacastEPKc@Base 0.7.90
 _ZN20QWaylandQuickSurface16staticMetaObjectE@Base 0.7.90
 _ZN20QWaylandQuickSurface18setUseTextureAlphaEb@Base 0.7.90
 _ZN20QWaylandQuickSurface22useTextureAlphaChangedEv@Base 0.7.90
 _ZN20QWaylandQuickSurface25setClientRenderingEnabledEb@Base 0.7.90
 _ZN20QWaylandQuickSurface29clientRenderingEnabledChangedEv@Base 0.7.90
 _ZN20QWaylandQuickSurfaceC1EP18QWaylandCompositorP14QWaylandClientji@Base 0.7.90
 _ZN20QWaylandQuickSurfaceC1Ev@Base 0.7.90
 _ZN20QWaylandQuickSurfaceC2EP18QWaylandCompositorP14QWaylandClientji@Base 0.7.90
 _ZN20QWaylandQuickSurfaceC2Ev@Base 0.7.90
 _ZN20QWaylandQuickSurfaceD0Ev@Base 0.7.90
 _ZN20QWaylandQuickSurfaceD1Ev@Base 0.7.90
 _ZN20QWaylandQuickSurfaceD2Ev@Base 0.7.90
 _ZN20QWaylandShellPrivate23shell_get_shell_surfaceEPN15QtWaylandServer8wl_shell8ResourceEjP11wl_resource@Base 0.7.90
 _ZN20QWaylandShellPrivateC1Ev@Base 0.7.90
 _ZN20QWaylandShellPrivateC2Ev@Base 0.7.90
 _ZN20QWaylandShellSurface10initializeEP13QWaylandShellP15QWaylandSurfaceP14QWaylandClientj@Base 0.7.90
 _ZN20QWaylandShellSurface10initializeEv@Base 0.7.90
 _ZN20QWaylandShellSurface11qt_metacallEN11QMetaObject4CallEiPPv@Base 0.7.90
 _ZN20QWaylandShellSurface11qt_metacastEPKc@Base 0.7.90
 _ZN20QWaylandShellSurface11startResizeEP19QWaylandInputDeviceNS_10ResizeEdgeE@Base 0.7.90
 _ZN20QWaylandShellSurface12setMaximizedEP14QWaylandOutput@Base 0.7.90
 _ZN20QWaylandShellSurface12setTransientEP15QWaylandSurfaceRK6QPointNS_11FocusPolicyE@Base 0.7.90
 _ZN20QWaylandShellSurface12titleChangedEv@Base 0.7.90
 _ZN20QWaylandShellSurface13interfaceNameEv@Base 0.7.90
 _ZN20QWaylandShellSurface13sendConfigureERK5QSizeNS_10ResizeEdgeE@Base 0.7.90
 _ZN20QWaylandShellSurface13sendPopupDoneEv@Base 0.7.90
 _ZN20QWaylandShellSurface13setFullScreenENS_16FullScreenMethodEjP14QWaylandOutput@Base 0.7.90
 _ZN20QWaylandShellSurface13sizeForResizeERK6QSizeFRK7QPointFNS_10ResizeEdgeE@Base 0.7.90
 _ZN20QWaylandShellSurface14surfaceChangedEv@Base 0.7.90
 _ZN20QWaylandShellSurface16classNameChangedEv@Base 0.7.90
 _ZN20QWaylandShellSurface16staticMetaObjectE@Base 0.7.90
 _ZN20QWaylandShellSurface18focusPolicyChangedEv@Base 0.7.90
 _ZN20QWaylandShellSurface18setDefaultToplevelEv@Base 0.7.90
 _ZN20QWaylandShellSurface4pongEv@Base 0.7.90
 _ZN20QWaylandShellSurface8setPopupEP19QWaylandInputDeviceP15QWaylandSurfaceRK6QPoint@Base 0.7.90
 _ZN20QWaylandShellSurface9interfaceEv@Base 0.7.90
 _ZN20QWaylandShellSurface9startMoveEP19QWaylandInputDevice@Base 0.7.90
 _ZN20QWaylandShellSurfaceC1EP13QWaylandShellP15QWaylandSurfaceP14QWaylandClientj@Base 0.7.90
 _ZN20QWaylandShellSurfaceC1Ev@Base 0.7.90
 _ZN20QWaylandShellSurfaceC2EP13QWaylandShellP15QWaylandSurfaceP14QWaylandClientj@Base 0.7.90
 _ZN20QWaylandShellSurfaceC2Ev@Base 0.7.90
 _ZN20QWaylandTouchPrivate10sendMotionEjiRK7QPointF@Base 0.7.90
 _ZN20QWaylandTouchPrivate13touch_releaseEPN15QtWaylandServer8wl_touch8ResourceE@Base 0.7.90
 _ZN20QWaylandTouchPrivate15resetFocusStateEv@Base 0.7.90
 _ZN20QWaylandTouchPrivate22touch_destroy_resourceEPN15QtWaylandServer8wl_touch8ResourceE@Base 0.7.90
 _ZN20QWaylandTouchPrivate6sendUpEji@Base 0.7.90
 _ZN20QWaylandTouchPrivate8sendDownEjiRK7QPointF@Base 0.7.90
 _ZN20QWaylandTouchPrivateC1EP13QWaylandTouchP19QWaylandInputDevice@Base 0.7.90
 _ZN20QWaylandTouchPrivateC2EP13QWaylandTouchP19QWaylandInputDevice@Base 0.7.90
 _ZN21QWaylandOutputPrivate10removeViewEP12QWaylandViewP15QWaylandSurface@Base 0.7.90
 _ZN21QWaylandOutputPrivate13sendModesInfoEv@Base 0.7.90
 _ZN21QWaylandOutputPrivate16sendGeometryInfoEv@Base 0.7.90
 _ZN21QWaylandOutputPrivate20output_bind_resourceEPN15QtWaylandServer9wl_output8ResourceE@Base 0.7.90
 _ZN21QWaylandOutputPrivate7addViewEP12QWaylandViewP15QWaylandSurface@Base 0.7.90
 _ZN21QWaylandOutputPrivateC1Ev@Base 0.7.90
 _ZN21QWaylandOutputPrivateC2Ev@Base 0.7.90
 _ZN21QWaylandOutputPrivateD0Ev@Base 0.7.90
 _ZN21QWaylandOutputPrivateD1Ev@Base 0.7.90
 _ZN21QWaylandOutputPrivateD2Ev@Base 0.7.90
 _ZN22QWaylandPointerPrivate15pointer_releaseEPN15QtWaylandServer10wl_pointer8ResourceE@Base 0.7.90
 _ZN22QWaylandPointerPrivate18pointer_set_cursorEPN15QtWaylandServer10wl_pointer8ResourceEjP11wl_resourceii@Base 0.7.90
 _ZN22QWaylandPointerPrivate24pointer_destroy_resourceEPN15QtWaylandServer10wl_pointer8ResourceE@Base 0.7.90
 _ZN22QWaylandPointerPrivateC1EP15QWaylandPointerP19QWaylandInputDevice@Base 0.7.90
 _ZN22QWaylandPointerPrivateC2EP15QWaylandPointerP19QWaylandInputDevice@Base 0.7.90
 _ZN22QWaylandSurfacePrivate10Subsurface19subsurface_set_syncEPN15QtWaylandServer13wl_subsurface8ResourceE@Base 0.7.90
 _ZN22QWaylandSurfacePrivate10Subsurface21subsurface_set_desyncEPN15QtWaylandServer13wl_subsurface8ResourceE@Base 0.7.90
 _ZN22QWaylandSurfacePrivate10Subsurface22subsurface_place_aboveEPN15QtWaylandServer13wl_subsurface8ResourceEP11wl_resource@Base 0.7.90
 _ZN22QWaylandSurfacePrivate10Subsurface22subsurface_place_belowEPN15QtWaylandServer13wl_subsurface8ResourceEP11wl_resource@Base 0.7.90
 _ZN22QWaylandSurfacePrivate10Subsurface23subsurface_set_positionEPN15QtWaylandServer13wl_subsurface8ResourceEii@Base 0.7.90
 _ZN22QWaylandSurfacePrivate13setBackBufferEPN9QtWayland13SurfaceBufferERK7QRegion@Base 0.7.90
 _ZN22QWaylandSurfacePrivate13surface_frameEPN15QtWaylandServer10wl_surface8ResourceEj@Base 0.7.90
 _ZN22QWaylandSurfacePrivate14initSubsurfaceEP15QWaylandSurfaceP9wl_clientii@Base 0.7.90
 _ZN22QWaylandSurfacePrivate14surface_attachEPN15QtWaylandServer10wl_surface8ResourceEP11wl_resourceii@Base 0.7.90
 _ZN22QWaylandSurfacePrivate14surface_commitEPN15QtWaylandServer10wl_surface8ResourceE@Base 0.7.90
 _ZN22QWaylandSurfacePrivate14surface_damageEPN15QtWaylandServer10wl_surface8ResourceEiiii@Base 0.7.90
 _ZN22QWaylandSurfacePrivate15surface_destroyEPN15QtWaylandServer10wl_surface8ResourceE@Base 0.7.90
 _ZN22QWaylandSurfacePrivate19createSurfaceBufferEP11wl_resource@Base 0.7.90
 _ZN22QWaylandSurfacePrivate19removeFrameCallbackEPN9QtWayland13FrameCallbackE@Base 0.7.90
 _ZN22QWaylandSurfacePrivate24surface_destroy_resourceEPN15QtWaylandServer10wl_surface8ResourceE@Base 0.7.90
 _ZN22QWaylandSurfacePrivate24surface_set_input_regionEPN15QtWaylandServer10wl_surface8ResourceEP11wl_resource@Base 0.7.90
 _ZN22QWaylandSurfacePrivate25surface_set_opaque_regionEPN15QtWaylandServer10wl_surface8ResourceEP11wl_resource@Base 0.7.90
 _ZN22QWaylandSurfacePrivate27notifyViewsAboutDestructionEv@Base 0.7.90
 _ZN22QWaylandSurfacePrivate28surface_set_buffer_transformEPN15QtWaylandServer10wl_surface8ResourceEi@Base 0.7.90
 _ZN22QWaylandSurfacePrivate3getEP15QWaylandSurface@Base 0.7.90
 _ZN22QWaylandSurfacePrivate3refEv@Base 0.7.90
 _ZN22QWaylandSurfacePrivate5derefEv@Base 0.7.90
 _ZN22QWaylandSurfacePrivate7refViewEP12QWaylandView@Base 0.7.90
 _ZN22QWaylandSurfacePrivate7setSizeERK5QSize@Base 0.7.90
 _ZN22QWaylandSurfacePrivate9derefViewEP12QWaylandView@Base 0.7.90
 _ZN22QWaylandSurfacePrivateC1Ev@Base 0.7.90
 _ZN22QWaylandSurfacePrivateC2Ev@Base 0.7.90
 _ZN22QWaylandSurfacePrivateD0Ev@Base 0.7.90
 _ZN22QWaylandSurfacePrivateD1Ev@Base 0.7.90
 _ZN22QWaylandSurfacePrivateD2Ev@Base 0.7.90
 _ZN23QWaylandDestroyListener11qt_metacallEN11QMetaObject4CallEiPPv@Base 0.7.90
 _ZN23QWaylandDestroyListener11qt_metacastEPKc@Base 0.7.90
 _ZN23QWaylandDestroyListener16staticMetaObjectE@Base 0.7.90
 _ZN23QWaylandDestroyListener20listenForDestructionEP11wl_resource@Base 0.7.90
 _ZN23QWaylandDestroyListener5firedEPv@Base 0.7.90
 _ZN23QWaylandDestroyListener5resetEv@Base 0.7.90
 _ZN23QWaylandDestroyListenerC1EP7QObject@Base 0.7.90
 _ZN23QWaylandDestroyListenerC2EP7QObject@Base 0.7.90
 _ZN23QWaylandKeyboardPrivate12sendKeyEventEjj@Base 0.7.90
 _ZN23QWaylandKeyboardPrivate12updateKeymapEv@Base 0.7.90
 _ZN23QWaylandKeyboardPrivate14createXKBStateEP10xkb_keymap@Base 0.7.90
 _ZN23QWaylandKeyboardPrivate14sendRepeatInfoEv@Base 0.7.90
 _ZN23QWaylandKeyboardPrivate15createXKBKeymapEv@Base 0.7.90
 _ZN23QWaylandKeyboardPrivate16keyboard_releaseEPN15QtWaylandServer11wl_keyboard8ResourceE@Base 0.7.90
 _ZN23QWaylandKeyboardPrivate18checkFocusResourceEPN15QtWaylandServer11wl_keyboard8ResourceE@Base 0.7.90
 _ZN23QWaylandKeyboardPrivate19updateModifierStateEjj@Base 0.7.90
 _ZN23QWaylandKeyboardPrivate22keyboard_bind_resourceEPN15QtWaylandServer11wl_keyboard8ResourceE@Base 0.7.90
 _ZN23QWaylandKeyboardPrivate25keyboard_destroy_resourceEPN15QtWaylandServer11wl_keyboard8ResourceE@Base 0.7.90
 _ZN23QWaylandKeyboardPrivate3getEP16QWaylandKeyboard@Base 0.7.90
 _ZN23QWaylandKeyboardPrivate7focusedEP15QWaylandSurface@Base 0.7.90
 _ZN23QWaylandKeyboardPrivate7initXKBEv@Base 0.7.90
 _ZN23QWaylandKeyboardPrivate8keyEventEjj@Base 0.7.90
 _ZN23QWaylandKeyboardPrivate9modifiersEjjjjj@Base 0.7.90
 _ZN23QWaylandKeyboardPrivate9sendEnterEP15QWaylandSurfacePN15QtWaylandServer11wl_keyboard8ResourceE@Base 0.7.90
 _ZN23QWaylandKeyboardPrivateC1EP19QWaylandInputDevice@Base 0.7.90
 _ZN23QWaylandKeyboardPrivateC2EP19QWaylandInputDevice@Base 0.7.90
 _ZN23QWaylandKeyboardPrivateD0Ev@Base 0.7.90
 _ZN23QWaylandKeyboardPrivateD1Ev@Base 0.7.90
 _ZN23QWaylandKeyboardPrivateD2Ev@Base 0.7.90
 _ZN23QWaylandQuickCompositor10classBeginEv@Base 0.7.90
 _ZN23QWaylandQuickCompositor11qt_metacallEN11QMetaObject4CallEiPPv@Base 0.7.90
 _ZN23QWaylandQuickCompositor11qt_metacastEPKc@Base 0.7.90
 _ZN23QWaylandQuickCompositor16staticMetaObjectE@Base 0.7.90
 _ZN23QWaylandQuickCompositor17componentCompleteEv@Base 0.7.90
 _ZN23QWaylandQuickCompositor6createEv@Base 0.7.90
 _ZN23QWaylandQuickCompositorC1EP7QObject@Base 0.7.90
 _ZN23QWaylandQuickCompositorC2EP7QObject@Base 0.7.90
 _ZN25QWaylandCompositorPrivate14destroySurfaceEP15QWaylandSurface@Base 0.7.90
 _ZN25QWaylandCompositorPrivate15addPolishObjectEP7QObject@Base 0.7.90
 _ZN25QWaylandCompositorPrivate17unregisterSurfaceEP15QWaylandSurface@Base 0.7.90
 _ZN25QWaylandCompositorPrivate20createDefaultSurfaceEv@Base 0.7.90
 _ZN25QWaylandCompositorPrivate24compositor_create_regionEPN15QtWaylandServer13wl_compositor8ResourceEj@Base 0.7.90
 _ZN25QWaylandCompositorPrivate25compositor_create_surfaceEPN15QtWaylandServer13wl_compositor8ResourceEj@Base 0.7.90
 _ZN25QWaylandCompositorPrivate25feedRetainedSelectionDataEP9QMimeData@Base 0.7.90
 _ZN25QWaylandCompositorPrivate27loadClientBufferIntegrationEv@Base 0.7.90
 _ZN25QWaylandCompositorPrivate27loadServerBufferIntegrationEv@Base 0.7.90
 _ZN25QWaylandCompositorPrivate28initializeDefaultInputDeviceEv@Base 0.7.90
 _ZN25QWaylandCompositorPrivate28subcompositor_get_subsurfaceEPN15QtWaylandServer16wl_subcompositor8ResourceEjP11wl_resourceS5_@Base 0.7.90
 _ZN25QWaylandCompositorPrivate29initializeHardwareIntegrationEv@Base 0.7.90
 _ZN25QWaylandCompositorPrivate4initEv@Base 0.7.90
 _ZN25QWaylandCompositorPrivateC1EP18QWaylandCompositor@Base 0.7.90
 _ZN25QWaylandCompositorPrivateC2EP18QWaylandCompositor@Base 0.7.90
 _ZN25QWaylandCompositorPrivateD0Ev@Base 0.7.90
 _ZN25QWaylandCompositorPrivateD1Ev@Base 0.7.90
 _ZN25QWaylandCompositorPrivateD2Ev@Base 0.7.90
 _ZN25QWaylandInputPanelPrivate18setCursorRectangleERK5QRect@Base 0.7.90
 _ZN25QWaylandInputPanelPrivate20setInputPanelVisibleEb@Base 0.7.90
 _ZN25QWaylandInputPanelPrivate35input_panel_get_input_panel_surfaceEPN15QtWaylandServer14wl_input_panel8ResourceEjP11wl_resource@Base 0.7.90
 _ZN25QWaylandInputPanelPrivate6findInEP14QWaylandObject@Base 0.7.90
 _ZN25QWaylandInputPanelPrivate8setFocusEP15QWaylandSurface@Base 0.7.90
 _ZN25QWaylandInputPanelPrivateC1EP18QWaylandCompositor@Base 0.7.90
 _ZN25QWaylandInputPanelPrivateC2EP18QWaylandCompositor@Base 0.7.90
 _ZN25QWaylandInputPanelPrivateD0Ev@Base 0.7.90
 _ZN25QWaylandInputPanelPrivateD1Ev@Base 0.7.90
 _ZN25QWaylandInputPanelPrivateD2Ev@Base 0.7.90
 _ZN26QWaylandInputDevicePrivate14seat_get_touchEPN15QtWaylandServer7wl_seat8ResourceEj@Base 0.7.90
 _ZN26QWaylandInputDevicePrivate15setCapabilitiesE6QFlagsIN19QWaylandInputDevice14CapabilityFlagEE@Base 0.7.90
 _ZN26QWaylandInputDevicePrivate16seat_get_pointerEPN15QtWaylandServer7wl_seat8ResourceEj@Base 0.7.90
 _ZN26QWaylandInputDevicePrivate17seat_get_keyboardEPN15QtWaylandServer7wl_seat8ResourceEj@Base 0.7.90
 _ZN26QWaylandInputDevicePrivate18seat_bind_resourceEPN15QtWaylandServer7wl_seat8ResourceE@Base 0.7.90
 _ZN26QWaylandInputDevicePrivate21seat_destroy_resourceEPN15QtWaylandServer7wl_seat8ResourceE@Base 0.7.90
 _ZN26QWaylandInputDevicePrivate25clientRequestedDataDeviceEPN9QtWayland17DataDeviceManagerEP9wl_clientj@Base 0.7.90
 _ZN26QWaylandInputDevicePrivateC1EP19QWaylandInputDeviceP18QWaylandCompositor@Base 0.7.90
 _ZN26QWaylandInputDevicePrivateC2EP19QWaylandInputDeviceP18QWaylandCompositor@Base 0.7.90
 _ZN26QWaylandInputDevicePrivateD0Ev@Base 0.7.90
 _ZN26QWaylandInputDevicePrivateD1Ev@Base 0.7.90
 _ZN26QWaylandInputDevicePrivateD2Ev@Base 0.7.90
 _ZN27QWaylandShellSurfacePrivate18shell_surface_moveEPN15QtWaylandServer16wl_shell_surface8ResourceEP11wl_resourcej@Base 0.7.90
 _ZN27QWaylandShellSurfacePrivate18shell_surface_pongEPN15QtWaylandServer16wl_shell_surface8ResourceEj@Base 0.7.90
 _ZN27QWaylandShellSurfacePrivate20shell_surface_resizeEPN15QtWaylandServer16wl_shell_surface8ResourceEP11wl_resourcejj@Base 0.7.90
 _ZN27QWaylandShellSurfacePrivate23shell_surface_set_classEPN15QtWaylandServer16wl_shell_surface8ResourceERK7QString@Base 0.7.90
 _ZN27QWaylandShellSurfacePrivate23shell_surface_set_popupEPN15QtWaylandServer16wl_shell_surface8ResourceEP11wl_resourcejS5_iij@Base 0.7.90
 _ZN27QWaylandShellSurfacePrivate23shell_surface_set_titleEPN15QtWaylandServer16wl_shell_surface8ResourceERK7QString@Base 0.7.90
 _ZN27QWaylandShellSurfacePrivate26shell_surface_set_toplevelEPN15QtWaylandServer16wl_shell_surface8ResourceE@Base 0.7.90
 _ZN27QWaylandShellSurfacePrivate27shell_surface_set_maximizedEPN15QtWaylandServer16wl_shell_surface8ResourceEP11wl_resource@Base 0.7.90
 _ZN27QWaylandShellSurfacePrivate27shell_surface_set_transientEPN15QtWaylandServer16wl_shell_surface8ResourceEP11wl_resourceiij@Base 0.7.90
 _ZN27QWaylandShellSurfacePrivate28shell_surface_set_fullscreenEPN15QtWaylandServer16wl_shell_surface8ResourceEjjP11wl_resource@Base 0.7.90
 _ZN27QWaylandShellSurfacePrivate30shell_surface_destroy_resourceEPN15QtWaylandServer16wl_shell_surface8ResourceE@Base 0.7.90
 _ZN27QWaylandShellSurfacePrivate4pingEj@Base 0.7.90
 _ZN27QWaylandShellSurfacePrivate4pingEv@Base 0.7.90
 _ZN27QWaylandShellSurfacePrivateC1Ev@Base 0.7.90
 _ZN27QWaylandShellSurfacePrivateC2Ev@Base 0.7.90
 _ZN27QWaylandShellSurfacePrivateD0Ev@Base 0.7.90
 _ZN27QWaylandShellSurfacePrivateD1Ev@Base 0.7.90
 _ZN27QWaylandShellSurfacePrivateD2Ev@Base 0.7.90
 _ZN29QWaylandQuickShellSurfaceItem11qt_metacallEN11QMetaObject4CallEiPPv@Base 0.7.90
 _ZN29QWaylandQuickShellSurfaceItem11qt_metacastEPKc@Base 0.7.90
 _ZN29QWaylandQuickShellSurfaceItem11setMoveItemEP10QQuickItem@Base 0.7.90
 _ZN29QWaylandQuickShellSurfaceItem14mouseMoveEventEP11QMouseEvent@Base 0.7.90
 _ZN29QWaylandQuickShellSurfaceItem15handleStartMoveEP19QWaylandInputDevice@Base 0.7.90
 _ZN29QWaylandQuickShellSurfaceItem15moveItemChangedEv@Base 0.7.90
 _ZN29QWaylandQuickShellSurfaceItem15setShellSurfaceEP20QWaylandShellSurface@Base 0.7.90
 _ZN29QWaylandQuickShellSurfaceItem16staticMetaObjectE@Base 0.7.90
 _ZN29QWaylandQuickShellSurfaceItem17componentCompleteEv@Base 0.7.90
 _ZN29QWaylandQuickShellSurfaceItem17handleStartResizeEP19QWaylandInputDeviceN20QWaylandShellSurface10ResizeEdgeE@Base 0.7.90
 _ZN29QWaylandQuickShellSurfaceItem17mouseReleaseEventEP11QMouseEvent@Base 0.7.90
 _ZN29QWaylandQuickShellSurfaceItem19shellSurfaceChangedEv@Base 0.7.90
 _ZN29QWaylandQuickShellSurfaceItem19surfaceChangedEventEP15QWaylandSurfaceS1_@Base 0.7.90
 _ZN29QWaylandQuickShellSurfaceItem24adjustOffsetForNextFrameERK7QPointF@Base 0.7.90
 _ZN29QWaylandQuickShellSurfaceItemC1EP10QQuickItem@Base 0.7.90
 _ZN29QWaylandQuickShellSurfaceItemC1ER36QWaylandQuickShellSurfaceItemPrivateP10QQuickItem@Base 0.7.90
 _ZN29QWaylandQuickShellSurfaceItemC2EP10QQuickItem@Base 0.7.90
 _ZN29QWaylandQuickShellSurfaceItemC2ER36QWaylandQuickShellSurfaceItemPrivateP10QQuickItem@Base 0.7.90
 _ZN30QWaylandWindowManagerExtension11qt_metacallEN11QMetaObject4CallEiPPv@Base 0.7.90
 _ZN30QWaylandWindowManagerExtension11qt_metacastEPKc@Base 0.7.90
 _ZN30QWaylandWindowManagerExtension13interfaceNameEv@Base 0.7.90
 _ZN30QWaylandWindowManagerExtension15sendQuitMessageEP9wl_client@Base 0.7.90
 _ZN30QWaylandWindowManagerExtension16staticMetaObjectE@Base 0.7.90
 _ZN30QWaylandWindowManagerExtension19setShowIsFullScreenEb@Base 0.7.90
 _ZN30QWaylandWindowManagerExtension7openUrlEP14QWaylandClientRK4QUrl@Base 0.7.90
 _ZN30QWaylandWindowManagerExtension9interfaceEv@Base 0.7.90
 _ZN30QWaylandWindowManagerExtensionC1EP18QWaylandCompositor@Base 0.7.90
 _ZN30QWaylandWindowManagerExtensionC2EP18QWaylandCompositor@Base 0.7.90
 _ZN37QWaylandWindowManagerExtensionPrivate22windowmanager_open_urlEPN15QtWaylandServer16qt_windowmanager8ResourceEjRK7QString@Base 0.7.90
 _ZN37QWaylandWindowManagerExtensionPrivate27windowmanager_bind_resourceEPN15QtWaylandServer16qt_windowmanager8ResourceE@Base 0.7.90
 _ZN37QWaylandWindowManagerExtensionPrivate30windowmanager_destroy_resourceEPN15QtWaylandServer16qt_windowmanager8ResourceE@Base 0.7.90
 _ZN37QWaylandWindowManagerExtensionPrivateC1EP18QWaylandCompositor@Base 0.7.90
 _ZN37QWaylandWindowManagerExtensionPrivateC2EP18QWaylandCompositor@Base 0.7.90
 _ZN9QtWayland12ServerBufferC1ERK5QSizeNS0_6FormatE@Base 0.7.90
 _ZN9QtWayland12ServerBufferC2ERK5QSizeNS0_6FormatE@Base 0.7.90
 _ZN9QtWayland12ServerBufferD0Ev@Base 0.7.90
 _ZN9QtWayland12ServerBufferD1Ev@Base 0.7.90
 _ZN9QtWayland12ServerBufferD2Ev@Base 0.7.90
 _ZN9QtWayland15ExtendedSurface11qt_metacallEN11QMetaObject4CallEiPPv@Base 0.7.90
 _ZN9QtWayland15ExtendedSurface11qt_metacastEPKc@Base 0.7.90
 _ZN9QtWayland15ExtendedSurface13setVisibilityEN7QWindow10VisibilityE@Base 0.7.90
 _ZN9QtWayland15ExtendedSurface14lowerRequestedEv@Base 0.7.90
 _ZN9QtWayland15ExtendedSurface14raiseRequestedEv@Base 0.7.90
 _ZN9QtWayland15ExtendedSurface16setParentSurfaceEP15QWaylandSurface@Base 0.7.90
 _ZN9QtWayland15ExtendedSurface16staticMetaObjectE@Base 0.7.90
 _ZN9QtWayland15ExtendedSurface17setWindowPropertyERK7QStringRK8QVariant@Base 0.7.90
 _ZN9QtWayland15ExtendedSurface18windowFlagsChangedEv@Base 0.7.90
 _ZN9QtWayland15ExtendedSurface19sendGenericPropertyERK7QStringRK8QVariant@Base 0.7.90
 _ZN9QtWayland15ExtendedSurface21setWindowPropertyImplERK7QStringRK8QVariant@Base 0.7.90
 _ZN9QtWayland15ExtendedSurface21windowPropertyChangedERK7QStringRK8QVariant@Base 0.7.90
 _ZN9QtWayland15ExtendedSurface22extended_surface_lowerEPN15QtWaylandServer19qt_extended_surface8ResourceE@Base 0.7.90
 _ZN9QtWayland15ExtendedSurface22extended_surface_raiseEPN15QtWaylandServer19qt_extended_surface8ResourceE@Base 0.7.90
 _ZN9QtWayland15ExtendedSurface28sendOnScreenVisibilityChangeEb@Base 0.7.90
 _ZN9QtWayland15ExtendedSurface29contentOrientationMaskChangedEv@Base 0.7.90
 _ZN9QtWayland15ExtendedSurface33extended_surface_destroy_resourceEPN15QtWaylandServer19qt_extended_surface8ResourceE@Base 0.7.90
 _ZN9QtWayland15ExtendedSurface33extended_surface_set_window_flagsEPN15QtWaylandServer19qt_extended_surface8ResourceEi@Base 0.7.90
 _ZN9QtWayland15ExtendedSurface40extended_surface_update_generic_propertyEPN15QtWaylandServer19qt_extended_surface8ResourceERK7QStringP8wl_array@Base 0.7.90
 _ZN9QtWayland15ExtendedSurface45extended_surface_set_content_orientation_maskEPN15QtWaylandServer19qt_extended_surface8ResourceEi@Base 0.7.90
 _ZN9QtWayland15ExtendedSurfaceC1EP9wl_clientjiP15QWaylandSurface@Base 0.7.90
 _ZN9QtWayland15ExtendedSurfaceC2EP9wl_clientjiP15QWaylandSurface@Base 0.7.90
 _ZN9QtWayland15ExtendedSurfaceD0Ev@Base 0.7.90
 _ZN9QtWayland15ExtendedSurfaceD1Ev@Base 0.7.90
 _ZN9QtWayland15ExtendedSurfaceD2Ev@Base 0.7.90
 _ZN9QtWayland22SurfaceExtensionGlobal11qt_metacallEN11QMetaObject4CallEiPPv@Base 0.7.90
 _ZN9QtWayland22SurfaceExtensionGlobal11qt_metacastEPKc@Base 0.7.90
 _ZN9QtWayland22SurfaceExtensionGlobal16staticMetaObjectE@Base 0.7.90
 _ZN9QtWayland22SurfaceExtensionGlobal20extendedSurfaceReadyEPNS_15ExtendedSurfaceEP15QWaylandSurface@Base 0.7.90
 _ZN9QtWayland22SurfaceExtensionGlobal38surface_extension_get_extended_surfaceEPN15QtWaylandServer20qt_surface_extension8ResourceEjP11wl_resource@Base 0.7.90
 _ZN9QtWayland22SurfaceExtensionGlobalC1EP18QWaylandCompositor@Base 0.7.90
 _ZN9QtWayland22SurfaceExtensionGlobalC2EP18QWaylandCompositor@Base 0.7.90
 _ZN9QtWayland23ClientBufferIntegrationC1Ev@Base 0.7.90
 _ZN9QtWayland23ClientBufferIntegrationC2Ev@Base 0.7.90
 _ZN9QtWayland23ServerBufferIntegration18initializeHardwareEP18QWaylandCompositor@Base 0.7.90
 _ZN9QtWayland23ServerBufferIntegrationC1Ev@Base 0.7.90
 _ZN9QtWayland23ServerBufferIntegrationC2Ev@Base 0.7.90
 _ZN9QtWayland23ServerBufferIntegrationD0Ev@Base 0.7.90
 _ZN9QtWayland23ServerBufferIntegrationD1Ev@Base 0.7.90
 _ZN9QtWayland23ServerBufferIntegrationD2Ev@Base 0.7.90
 _ZN9QtWayland29ClientBufferIntegrationPlugin11qt_metacallEN11QMetaObject4CallEiPPv@Base 0.7.90
 _ZN9QtWayland29ClientBufferIntegrationPlugin11qt_metacastEPKc@Base 0.7.90
 _ZN9QtWayland29ClientBufferIntegrationPlugin16staticMetaObjectE@Base 0.7.90
 _ZN9QtWayland29ClientBufferIntegrationPluginC1EP7QObject@Base 0.7.90
 _ZN9QtWayland29ClientBufferIntegrationPluginC2EP7QObject@Base 0.7.90
 _ZN9QtWayland29ClientBufferIntegrationPluginD0Ev@Base 0.7.90
 _ZN9QtWayland29ClientBufferIntegrationPluginD1Ev@Base 0.7.90
 _ZN9QtWayland29ClientBufferIntegrationPluginD2Ev@Base 0.7.90
 _ZN9QtWayland29ServerBufferIntegrationPlugin11qt_metacallEN11QMetaObject4CallEiPPv@Base 0.7.90
 _ZN9QtWayland29ServerBufferIntegrationPlugin11qt_metacastEPKc@Base 0.7.90
 _ZN9QtWayland29ServerBufferIntegrationPlugin16staticMetaObjectE@Base 0.7.90
 _ZN9QtWayland29ServerBufferIntegrationPluginC1EP7QObject@Base 0.7.90
 _ZN9QtWayland29ServerBufferIntegrationPluginC2EP7QObject@Base 0.7.90
 _ZN9QtWayland29ServerBufferIntegrationPluginD0Ev@Base 0.7.90
 _ZN9QtWayland29ServerBufferIntegrationPluginD1Ev@Base 0.7.90
 _ZN9QtWayland29ServerBufferIntegrationPluginD2Ev@Base 0.7.90
 _ZN9QtWayland30ClientBufferIntegrationFactory4keysERK7QString@Base 0.7.90
 _ZN9QtWayland30ClientBufferIntegrationFactory6createERK7QStringRK11QStringListS3_@Base 0.7.90
 _ZN9QtWayland30ServerBufferIntegrationFactory4keysERK7QString@Base 0.7.90
 _ZN9QtWayland30ServerBufferIntegrationFactory6createERK7QStringRK11QStringListS3_@Base 0.7.90
 _ZN9QtWayland6Region10region_addEPN15QtWaylandServer9wl_region8ResourceEiiii@Base 0.7.90
 _ZN9QtWayland6Region12fromResourceEP11wl_resource@Base 0.7.90
 _ZN9QtWayland6Region14region_destroyEPN15QtWaylandServer9wl_region8ResourceE@Base 0.7.90
 _ZN9QtWayland6Region15region_subtractEPN15QtWaylandServer9wl_region8ResourceEiiii@Base 0.7.90
 _ZN9QtWayland6Region23region_destroy_resourceEPN15QtWaylandServer9wl_region8ResourceE@Base 0.7.90
 _ZN9QtWayland6RegionC1EP9wl_clientj@Base 0.7.90
 _ZN9QtWayland6RegionC2EP9wl_clientj@Base 0.7.90
 _ZN9QtWayland6RegionD0Ev@Base 0.7.90
 _ZN9QtWayland6RegionD1Ev@Base 0.7.90
 _ZN9QtWayland6RegionD2Ev@Base 0.7.90
 _ZNK12QWaylandDrag10metaObjectEv@Base 0.7.90
 _ZNK12QWaylandDrag4iconEv@Base 0.7.90
 _ZNK12QWaylandDrag7visibleEv@Base 0.7.90
 _ZNK12QWaylandView10metaObjectEv@Base 0.7.90
 _ZNK12QWaylandView12renderObjectEv@Base 0.7.90
 _ZNK12QWaylandView14isBufferLockedEv@Base 0.7.90
 _ZNK12QWaylandView15surfaceResourceEv@Base 0.7.90
 _ZNK12QWaylandView19discardFrontBuffersEv@Base 0.7.90
 _ZNK12QWaylandView6outputEv@Base 0.7.90
 _ZNK12QWaylandView7surfaceEv@Base 0.7.90
 _ZNK13QWaylandShell10metaObjectEv@Base 0.7.90
 _ZNK13QWaylandTouch10compositorEv@Base 0.7.90
 _ZNK13QWaylandTouch10metaObjectEv@Base 0.7.90
 _ZNK13QWaylandTouch10mouseFocusEv@Base 0.7.90
 _ZNK13QWaylandTouch11inputDeviceEv@Base 0.7.90
 _ZNK13QWaylandTouch13focusResourceEv@Base 0.7.90
 _ZNK14QWaylandClient10metaObjectEv@Base 0.7.90
 _ZNK14QWaylandClient6clientEv@Base 0.7.90
 _ZNK14QWaylandClient6userIdEv@Base 0.7.90
 _ZNK14QWaylandClient7groupIdEv@Base 0.7.90
 _ZNK14QWaylandClient9processIdEv@Base 0.7.90
 _ZNK14QWaylandObject10extensionsEv@Base 0.7.90
 _ZNK14QWaylandOutput10compositorEv@Base 0.7.90
 _ZNK14QWaylandOutput10metaObjectEv@Base 0.7.90
 _ZNK14QWaylandOutput11currentModeEv@Base 0.7.90
 _ZNK14QWaylandOutput11scaleFactorEv@Base 0.7.90
 _ZNK14QWaylandOutput12manufacturerEv@Base 0.7.90
 _ZNK14QWaylandOutput12physicalSizeEv@Base 0.7.90
 _ZNK14QWaylandOutput17availableGeometryEv@Base 0.7.90
 _ZNK14QWaylandOutput17resourceForClientEP14QWaylandClient@Base 0.7.90
 _ZNK14QWaylandOutput17sizeFollowsWindowEv@Base 0.7.90
 _ZNK14QWaylandOutput5modelEv@Base 0.7.90
 _ZNK14QWaylandOutput5modesEv@Base 0.7.90
 _ZNK14QWaylandOutput6windowEv@Base 0.7.90
 _ZNK14QWaylandOutput8geometryEv@Base 0.7.90
 _ZNK14QWaylandOutput8positionEv@Base 0.7.90
 _ZNK14QWaylandOutput8subpixelEv@Base 0.7.90
 _ZNK14QWaylandOutput9transformEv@Base 0.7.90
 _ZNK15QWaylandPointer10compositorEv@Base 0.7.90
 _ZNK15QWaylandPointer10metaObjectEv@Base 0.7.90
 _ZNK15QWaylandPointer10mouseFocusEv@Base 0.7.90
 _ZNK15QWaylandPointer11inputDeviceEv@Base 0.7.90
 _ZNK15QWaylandPointer13focusResourceEv@Base 0.7.90
 _ZNK15QWaylandPointer15isButtonPressedEv@Base 0.7.90
 _ZNK15QWaylandPointer20currentLocalPositionEv@Base 0.7.90
 _ZNK15QWaylandPointer20currentSpacePositionEv@Base 0.7.90
 _ZNK15QWaylandPointer6outputEv@Base 0.7.90
 _ZNK15QWaylandSurface10compositorEv@Base 0.7.90
 _ZNK15QWaylandSurface10metaObjectEv@Base 0.7.90
 _ZNK15QWaylandSurface11isDestroyedEv@Base 0.7.90
 _ZNK15QWaylandSurface13isInitializedEv@Base 0.7.90
 _ZNK15QWaylandSurface14throttlingViewEv@Base 0.7.90
 _ZNK15QWaylandSurface15isCursorSurfaceEv@Base 0.7.90
 _ZNK15QWaylandSurface18contentOrientationEv@Base 0.7.90
 _ZNK15QWaylandSurface19inputRegionContainsERK6QPoint@Base 0.7.90
 _ZNK15QWaylandSurface20hasInputPanelSurfaceEv@Base 0.7.90
 _ZNK15QWaylandSurface4sizeEv@Base 0.7.90
 _ZNK15QWaylandSurface5viewsEv@Base 0.7.90
 _ZNK15QWaylandSurface6clientEv@Base 0.7.90
 _ZNK15QWaylandSurface6originEv@Base 0.7.90
 _ZNK15QWaylandSurface8isMappedEv@Base 0.7.90
 _ZNK15QWaylandSurface8resourceEv@Base 0.7.90
 _ZNK16QWaylandKeyboard10compositorEv@Base 0.7.90
 _ZNK16QWaylandKeyboard10metaObjectEv@Base 0.7.90
 _ZNK16QWaylandKeyboard10repeatRateEv@Base 0.7.90
 _ZNK16QWaylandKeyboard11focusClientEv@Base 0.7.90
 _ZNK16QWaylandKeyboard11inputDeviceEv@Base 0.7.90
 _ZNK16QWaylandKeyboard11repeatDelayEv@Base 0.7.90
 _ZNK16QWaylandKeyboard5focusEv@Base 0.7.90
 _ZNK17QWaylandBufferRef11isDestroyedEv@Base 0.7.90
 _ZNK17QWaylandBufferRef13bindToTextureEv@Base 0.7.90
 _ZNK17QWaylandBufferRef13textureTargetEv@Base 0.7.90
 _ZNK17QWaylandBufferRef13updateTextureEv@Base 0.7.90
 _ZNK17QWaylandBufferRef4sizeEv@Base 0.7.90
 _ZNK17QWaylandBufferRef5imageEv@Base 0.7.90
 _ZNK17QWaylandBufferRef5isShmEv@Base 0.7.90
 _ZNK17QWaylandBufferRef6isNullEv@Base 0.7.90
 _ZNK17QWaylandBufferRef6originEv@Base 0.7.90
 _ZNK17QWaylandBufferRef9hasBufferEv@Base 0.7.90
 _ZNK17QWaylandBufferRef9wl_bufferEv@Base 0.7.90
 _ZNK17QWaylandExtension10metaObjectEv@Base 0.7.90
 _ZNK17QWaylandExtension13isInitializedEv@Base 0.7.90
 _ZNK17QWaylandExtension18extensionContainerEv@Base 0.7.90
 _ZNK17QWaylandQuickItem10compositorEv@Base 0.7.90
 _ZNK17QWaylandQuickItem10metaObjectEv@Base 0.7.90
 _ZNK17QWaylandQuickItem12focusOnClickEv@Base 0.7.90
 _ZNK17QWaylandQuickItem12paintEnabledEv@Base 0.7.90
 _ZNK17QWaylandQuickItem15textureProviderEv@Base 0.7.90
 _ZNK17QWaylandQuickItem18inputEventsEnabledEv@Base 0.7.90
 _ZNK17QWaylandQuickItem18sizeFollowsSurfaceEv@Base 0.7.90
 _ZNK17QWaylandQuickItem18touchEventsEnabledEv@Base 0.7.90
 _ZNK17QWaylandQuickItem4viewEv@Base 0.7.90
 _ZNK17QWaylandQuickItem6originEv@Base 0.7.90
 _ZNK17QWaylandQuickItem7surfaceEv@Base 0.7.90
 _ZNK18QWaylandCompositor10metaObjectEv@Base 0.7.90
 _ZNK18QWaylandCompositor10socketNameEv@Base 0.7.90
 _ZNK18QWaylandCompositor13defaultOutputEv@Base 0.7.90
 _ZNK18QWaylandCompositor16currentTimeMsecsEv@Base 0.7.90
 _ZNK18QWaylandCompositor17surfacesForClientEP14QWaylandClient@Base 0.7.90
 _ZNK18QWaylandCompositor18defaultInputDeviceEv@Base 0.7.90
 _ZNK18QWaylandCompositor24retainedSelectionEnabledEv@Base 0.7.90
 _ZNK18QWaylandCompositor31useHardwareIntegrationExtensionEv@Base 0.7.90
 _ZNK18QWaylandCompositor7clientsEv@Base 0.7.90
 _ZNK18QWaylandCompositor7displayEv@Base 0.7.90
 _ZNK18QWaylandCompositor7outputsEv@Base 0.7.90
 _ZNK18QWaylandCompositor8surfacesEv@Base 0.7.90
 _ZNK18QWaylandCompositor9isCreatedEv@Base 0.7.90
 _ZNK18QWaylandCompositor9outputForEP7QWindow@Base 0.7.90
 _ZNK18QWaylandInputPanel10metaObjectEv@Base 0.7.90
 _ZNK18QWaylandInputPanel15cursorRectangleEv@Base 0.7.90
 _ZNK18QWaylandInputPanel5focusEv@Base 0.7.90
 _ZNK18QWaylandInputPanel7visibleEv@Base 0.7.90
 _ZNK19QWaylandInputDevice10compositorEv@Base 0.7.90
 _ZNK19QWaylandInputDevice10metaObjectEv@Base 0.7.90
 _ZNK19QWaylandInputDevice10mouseFocusEv@Base 0.7.90
 _ZNK19QWaylandInputDevice12capabilitiesEv@Base 0.7.90
 _ZNK19QWaylandInputDevice13keyboardFocusEv@Base 0.7.90
 _ZNK19QWaylandInputDevice4dragEv@Base 0.7.90
 _ZNK19QWaylandInputDevice5touchEv@Base 0.7.90
 _ZNK19QWaylandInputDevice7isOwnerEP11QInputEvent@Base 0.7.90
 _ZNK19QWaylandInputDevice7pointerEv@Base 0.7.90
 _ZNK19QWaylandInputDevice8keyboardEv@Base 0.7.90
 _ZNK19QWaylandQuickOutput10metaObjectEv@Base 0.7.90
 _ZNK19QWaylandQuickOutput22automaticFrameCallbackEv@Base 0.7.90
 _ZNK20QWaylandQuickSurface10metaObjectEv@Base 0.7.90
 _ZNK20QWaylandQuickSurface15useTextureAlphaEv@Base 0.7.90
 _ZNK20QWaylandQuickSurface22clientRenderingEnabledEv@Base 0.7.90
 _ZNK20QWaylandShellSurface10metaObjectEv@Base 0.7.90
 _ZNK20QWaylandShellSurface11focusPolicyEv@Base 0.7.90
 _ZNK20QWaylandShellSurface5titleEv@Base 0.7.90
 _ZNK20QWaylandShellSurface7surfaceEv@Base 0.7.90
 _ZNK20QWaylandShellSurface9classNameEv@Base 0.7.90
 _ZNK23QWaylandDestroyListener10metaObjectEv@Base 0.7.90
 _ZNK23QWaylandQuickCompositor10metaObjectEv@Base 0.7.90
 _ZNK25QWaylandExtensionTemplateI13QWaylandShellE18extensionInterfaceEv@Base 0.7.90
 _ZNK25QWaylandExtensionTemplateI18QWaylandInputPanelE18extensionInterfaceEv@Base 0.7.90
 _ZNK25QWaylandExtensionTemplateI20QWaylandShellSurfaceE18extensionInterfaceEv@Base 0.7.90
 _ZNK25QWaylandExtensionTemplateI30QWaylandWindowManagerExtensionE18extensionInterfaceEv@Base 0.7.90
 _ZNK25QWaylandExtensionTemplateIN9QtWayland15ExtendedSurfaceEE18extensionInterfaceEv@Base 0.7.90
 _ZNK25QWaylandExtensionTemplateIN9QtWayland22SurfaceExtensionGlobalEE18extensionInterfaceEv@Base 0.7.90
 _ZNK25QWaylandInputPanelPrivate15cursorRectangleEv@Base 0.7.90
 _ZNK25QWaylandInputPanelPrivate17inputPanelVisibleEv@Base 0.7.90
 _ZNK25QWaylandInputPanelPrivate17waylandInputPanelEv@Base 0.7.90
 _ZNK25QWaylandInputPanelPrivate5focusEv@Base 0.7.90
 _ZNK29QWaylandQuickShellSurfaceItem10metaObjectEv@Base 0.7.90
 _ZNK29QWaylandQuickShellSurfaceItem12shellSurfaceEv@Base 0.7.90
 _ZNK29QWaylandQuickShellSurfaceItem8moveItemEv@Base 0.7.90
 _ZNK30QWaylandWindowManagerExtension10metaObjectEv@Base 0.7.90
 _ZNK9QtWayland12ServerBuffer11isYInvertedEv@Base 0.7.90
 _ZNK9QtWayland12ServerBuffer4sizeEv@Base 0.7.90
 _ZNK9QtWayland12ServerBuffer6formatEv@Base 0.7.90
 _ZNK9QtWayland15ExtendedSurface10metaObjectEv@Base 0.7.90
 _ZNK9QtWayland15ExtendedSurface14windowPropertyERK7QString@Base 0.7.90
 _ZNK9QtWayland15ExtendedSurface16windowPropertiesEv@Base 0.7.90
 _ZNK9QtWayland15ExtendedSurface22contentOrientationMaskEv@Base 0.7.90
 _ZNK9QtWayland22SurfaceExtensionGlobal10metaObjectEv@Base 0.7.90
 _ZNK9QtWayland29ClientBufferIntegrationPlugin10metaObjectEv@Base 0.7.90
 _ZNK9QtWayland29ServerBufferIntegrationPlugin10metaObjectEv@Base 0.7.90
 _ZTI12QWaylandDrag@Base 0.7.90
 _ZTI12QWaylandView@Base 0.7.90
 _ZTI13QWaylandShell@Base 0.7.90
 _ZTI13QWaylandTouch@Base 0.7.90
 _ZTI14QWaylandClient@Base 0.7.90
 _ZTI14QWaylandObject@Base 0.7.90
 _ZTI14QWaylandOutput@Base 0.7.90
 _ZTI15QWaylandPointer@Base 0.7.90
 _ZTI15QWaylandSurface@Base 0.7.90
 _ZTI16QWaylandKeyboard@Base 0.7.90
 _ZTI17QWaylandExtension@Base 0.7.90
 _ZTI17QWaylandQuickItem@Base 0.7.90
 _ZTI18QWaylandCompositor@Base 0.7.90
 _ZTI18QWaylandInputPanel@Base 0.7.90
 _ZTI19QWaylandInputDevice@Base 0.7.90
 _ZTI19QWaylandQuickOutput@Base 0.7.90
 _ZTI20QWaylandQuickSurface@Base 0.7.90
 _ZTI20QWaylandShellPrivate@Base 0.7.90
 _ZTI20QWaylandShellSurface@Base 0.7.90
 _ZTI20QWaylandTouchPrivate@Base 0.7.90
 _ZTI21QWaylandOutputPrivate@Base 0.7.90
 _ZTI22QWaylandPointerPrivate@Base 0.7.90
 _ZTI22QWaylandSurfacePrivate@Base 0.7.90
 _ZTI23QWaylandDestroyListener@Base 0.7.90
 _ZTI23QWaylandKeyboardPrivate@Base 0.7.90
 _ZTI23QWaylandQuickCompositor@Base 0.7.90
 _ZTI24QWaylandExtensionPrivate@Base 0.7.90
 _ZTI25QWaylandCompositorPrivate@Base 0.7.90
 _ZTI25QWaylandExtensionTemplateI13QWaylandShellE@Base 0.7.90
 _ZTI25QWaylandExtensionTemplateI18QWaylandInputPanelE@Base 0.7.90
 _ZTI25QWaylandExtensionTemplateI20QWaylandShellSurfaceE@Base 0.7.90
 _ZTI25QWaylandExtensionTemplateI30QWaylandWindowManagerExtensionE@Base 0.7.90
 _ZTI25QWaylandExtensionTemplateIN9QtWayland15ExtendedSurfaceEE@Base 0.7.90
 _ZTI25QWaylandExtensionTemplateIN9QtWayland22SurfaceExtensionGlobalEE@Base 0.7.90
 _ZTI25QWaylandInputPanelPrivate@Base 0.7.90
 _ZTI26QWaylandInputDevicePrivate@Base 0.7.90
 _ZTI27QWaylandShellSurfacePrivate@Base 0.7.90
 _ZTI29QWaylandQuickShellSurfaceItem@Base 0.7.90
 _ZTI30QWaylandWindowManagerExtension@Base 0.7.90
 _ZTI32QWaylandExtensionTemplatePrivate@Base 0.7.90
 _ZTI36QWaylandQuickShellSurfaceItemPrivate@Base 0.7.90
 _ZTI37QWaylandWindowManagerExtensionPrivate@Base 0.7.90
 _ZTIN22QWaylandSurfacePrivate10SubsurfaceE@Base 0.7.90
 _ZTIN9QtWayland12ServerBufferE@Base 0.7.90
 _ZTIN9QtWayland15ExtendedSurfaceE@Base 0.7.90
 _ZTIN9QtWayland22SurfaceExtensionGlobalE@Base 0.7.90
 _ZTIN9QtWayland23ClientBufferIntegrationE@Base 0.7.90
 _ZTIN9QtWayland23ServerBufferIntegrationE@Base 0.7.90
 _ZTIN9QtWayland29ClientBufferIntegrationPluginE@Base 0.7.90
 _ZTIN9QtWayland29ServerBufferIntegrationPluginE@Base 0.7.90
 _ZTIN9QtWayland6RegionE@Base 0.7.90
 _ZTS12QWaylandDrag@Base 0.7.90
 _ZTS12QWaylandView@Base 0.7.90
 _ZTS13QWaylandShell@Base 0.7.90
 _ZTS13QWaylandTouch@Base 0.7.90
 _ZTS14QWaylandClient@Base 0.7.90
 _ZTS14QWaylandObject@Base 0.7.90
 _ZTS14QWaylandOutput@Base 0.7.90
 _ZTS15QWaylandPointer@Base 0.7.90
 _ZTS15QWaylandSurface@Base 0.7.90
 _ZTS16QWaylandKeyboard@Base 0.7.90
 _ZTS17QWaylandExtension@Base 0.7.90
 _ZTS17QWaylandQuickItem@Base 0.7.90
 _ZTS18QWaylandCompositor@Base 0.7.90
 _ZTS18QWaylandInputPanel@Base 0.7.90
 _ZTS19QWaylandInputDevice@Base 0.7.90
 _ZTS19QWaylandQuickOutput@Base 0.7.90
 _ZTS20QWaylandQuickSurface@Base 0.7.90
 _ZTS20QWaylandShellPrivate@Base 0.7.90
 _ZTS20QWaylandShellSurface@Base 0.7.90
 _ZTS20QWaylandTouchPrivate@Base 0.7.90
 _ZTS21QWaylandOutputPrivate@Base 0.7.90
 _ZTS22QWaylandPointerPrivate@Base 0.7.90
 _ZTS22QWaylandSurfacePrivate@Base 0.7.90
 _ZTS23QWaylandDestroyListener@Base 0.7.90
 _ZTS23QWaylandKeyboardPrivate@Base 0.7.90
 _ZTS23QWaylandQuickCompositor@Base 0.7.90
 _ZTS24QWaylandExtensionPrivate@Base 0.7.90
 _ZTS25QWaylandCompositorPrivate@Base 0.7.90
 _ZTS25QWaylandExtensionTemplateI13QWaylandShellE@Base 0.7.90
 _ZTS25QWaylandExtensionTemplateI18QWaylandInputPanelE@Base 0.7.90
 _ZTS25QWaylandExtensionTemplateI20QWaylandShellSurfaceE@Base 0.7.90
 _ZTS25QWaylandExtensionTemplateI30QWaylandWindowManagerExtensionE@Base 0.7.90
 _ZTS25QWaylandExtensionTemplateIN9QtWayland15ExtendedSurfaceEE@Base 0.7.90
 _ZTS25QWaylandExtensionTemplateIN9QtWayland22SurfaceExtensionGlobalEE@Base 0.7.90
 _ZTS25QWaylandInputPanelPrivate@Base 0.7.90
 _ZTS26QWaylandInputDevicePrivate@Base 0.7.90
 _ZTS27QWaylandShellSurfacePrivate@Base 0.7.90
 _ZTS29QWaylandQuickShellSurfaceItem@Base 0.7.90
 _ZTS30QWaylandWindowManagerExtension@Base 0.7.90
 _ZTS32QWaylandExtensionTemplatePrivate@Base 0.7.90
 _ZTS36QWaylandQuickShellSurfaceItemPrivate@Base 0.7.90
 _ZTS37QWaylandWindowManagerExtensionPrivate@Base 0.7.90
 _ZTSN22QWaylandSurfacePrivate10SubsurfaceE@Base 0.7.90
 _ZTSN9QtWayland12ServerBufferE@Base 0.7.90
 _ZTSN9QtWayland15ExtendedSurfaceE@Base 0.7.90
 _ZTSN9QtWayland22SurfaceExtensionGlobalE@Base 0.7.90
 _ZTSN9QtWayland23ClientBufferIntegrationE@Base 0.7.90
 _ZTSN9QtWayland23ServerBufferIntegrationE@Base 0.7.90
 _ZTSN9QtWayland29ClientBufferIntegrationPluginE@Base 0.7.90
 _ZTSN9QtWayland29ServerBufferIntegrationPluginE@Base 0.7.90
 _ZTSN9QtWayland6RegionE@Base 0.7.90
 _ZTV12QWaylandDrag@Base 0.7.90
 _ZTV12QWaylandView@Base 0.7.90
 _ZTV13QWaylandShell@Base 0.7.90
 _ZTV13QWaylandTouch@Base 0.7.90
 _ZTV14QWaylandClient@Base 0.7.90
 _ZTV14QWaylandObject@Base 0.7.90
 _ZTV14QWaylandOutput@Base 0.7.90
 _ZTV15QWaylandPointer@Base 0.7.90
 _ZTV15QWaylandSurface@Base 0.7.90
 _ZTV16QWaylandKeyboard@Base 0.7.90
 _ZTV17QWaylandExtension@Base 0.7.90
 _ZTV17QWaylandQuickItem@Base 0.7.90
 _ZTV18QWaylandCompositor@Base 0.7.90
 _ZTV18QWaylandInputPanel@Base 0.7.90
 _ZTV19QWaylandInputDevice@Base 0.7.90
 _ZTV19QWaylandQuickOutput@Base 0.7.90
 _ZTV20QWaylandQuickSurface@Base 0.7.90
 _ZTV20QWaylandShellPrivate@Base 0.7.90
 _ZTV20QWaylandShellSurface@Base 0.7.90
 _ZTV20QWaylandTouchPrivate@Base 0.7.90
 _ZTV21QWaylandOutputPrivate@Base 0.7.90
 _ZTV22QWaylandPointerPrivate@Base 0.7.90
 _ZTV22QWaylandSurfacePrivate@Base 0.7.90
 _ZTV23QWaylandDestroyListener@Base 0.7.90
 _ZTV23QWaylandKeyboardPrivate@Base 0.7.90
 _ZTV23QWaylandQuickCompositor@Base 0.7.90
 _ZTV24QWaylandExtensionPrivate@Base 0.7.90
 _ZTV25QWaylandCompositorPrivate@Base 0.7.90
 _ZTV25QWaylandExtensionTemplateI13QWaylandShellE@Base 0.7.90
 _ZTV25QWaylandExtensionTemplateI18QWaylandInputPanelE@Base 0.7.90
 _ZTV25QWaylandExtensionTemplateI20QWaylandShellSurfaceE@Base 0.7.90
 _ZTV25QWaylandExtensionTemplateI30QWaylandWindowManagerExtensionE@Base 0.7.90
 _ZTV25QWaylandExtensionTemplateIN9QtWayland15ExtendedSurfaceEE@Base 0.7.90
 _ZTV25QWaylandExtensionTemplateIN9QtWayland22SurfaceExtensionGlobalEE@Base 0.7.90
 _ZTV25QWaylandInputPanelPrivate@Base 0.7.90
 _ZTV26QWaylandInputDevicePrivate@Base 0.7.90
 _ZTV27QWaylandShellSurfacePrivate@Base 0.7.90
 _ZTV29QWaylandQuickShellSurfaceItem@Base 0.7.90
 _ZTV30QWaylandWindowManagerExtension@Base 0.7.90
 _ZTV32QWaylandExtensionTemplatePrivate@Base 0.7.90
 _ZTV36QWaylandQuickShellSurfaceItemPrivate@Base 0.7.90
 _ZTV37QWaylandWindowManagerExtensionPrivate@Base 0.7.90
 _ZTVN22QWaylandSurfacePrivate10SubsurfaceE@Base 0.7.90
 _ZTVN9QtWayland12ServerBufferE@Base 0.7.90
 _ZTVN9QtWayland15ExtendedSurfaceE@Base 0.7.90
 _ZTVN9QtWayland22SurfaceExtensionGlobalE@Base 0.7.90
 _ZTVN9QtWayland23ClientBufferIntegrationE@Base 0.7.90
 _ZTVN9QtWayland23ServerBufferIntegrationE@Base 0.7.90
 _ZTVN9QtWayland29ClientBufferIntegrationPluginE@Base 0.7.90
 _ZTVN9QtWayland29ServerBufferIntegrationPluginE@Base 0.7.90
 _ZTVN9QtWayland6RegionE@Base 0.7.90
 _ZThn112_N20QWaylandTouchPrivate13touch_releaseEPN15QtWaylandServer8wl_touch8ResourceE@Base 0.7.90
 _ZThn112_N20QWaylandTouchPrivate22touch_destroy_resourceEPN15QtWaylandServer8wl_touch8ResourceE@Base 0.7.90
 _ZThn112_N21QWaylandOutputPrivate20output_bind_resourceEPN15QtWaylandServer9wl_output8ResourceE@Base 0.7.90
 _ZThn112_N21QWaylandOutputPrivateD0Ev@Base 0.7.90
 _ZThn112_N21QWaylandOutputPrivateD1Ev@Base 0.7.90
 _ZThn112_N22QWaylandPointerPrivate15pointer_releaseEPN15QtWaylandServer10wl_pointer8ResourceE@Base 0.7.90
 _ZThn112_N22QWaylandPointerPrivate18pointer_set_cursorEPN15QtWaylandServer10wl_pointer8ResourceEjP11wl_resourceii@Base 0.7.90
 _ZThn112_N22QWaylandPointerPrivate24pointer_destroy_resourceEPN15QtWaylandServer10wl_pointer8ResourceE@Base 0.7.90
 _ZThn112_N22QWaylandSurfacePrivate13surface_frameEPN15QtWaylandServer10wl_surface8ResourceEj@Base 0.7.90
 _ZThn112_N22QWaylandSurfacePrivate14surface_attachEPN15QtWaylandServer10wl_surface8ResourceEP11wl_resourceii@Base 0.7.90
 _ZThn112_N22QWaylandSurfacePrivate14surface_commitEPN15QtWaylandServer10wl_surface8ResourceE@Base 0.7.90
 _ZThn112_N22QWaylandSurfacePrivate14surface_damageEPN15QtWaylandServer10wl_surface8ResourceEiiii@Base 0.7.90
 _ZThn112_N22QWaylandSurfacePrivate15surface_destroyEPN15QtWaylandServer10wl_surface8ResourceE@Base 0.7.90
 _ZThn112_N22QWaylandSurfacePrivate24surface_destroy_resourceEPN15QtWaylandServer10wl_surface8ResourceE@Base 0.7.90
 _ZThn112_N22QWaylandSurfacePrivate24surface_set_input_regionEPN15QtWaylandServer10wl_surface8ResourceEP11wl_resource@Base 0.7.90
 _ZThn112_N22QWaylandSurfacePrivate25surface_set_opaque_regionEPN15QtWaylandServer10wl_surface8ResourceEP11wl_resource@Base 0.7.90
 _ZThn112_N22QWaylandSurfacePrivate28surface_set_buffer_transformEPN15QtWaylandServer10wl_surface8ResourceEi@Base 0.7.90
 _ZThn112_N22QWaylandSurfacePrivateD0Ev@Base 0.7.90
 _ZThn112_N22QWaylandSurfacePrivateD1Ev@Base 0.7.90
 _ZThn112_N23QWaylandKeyboardPrivate16keyboard_releaseEPN15QtWaylandServer11wl_keyboard8ResourceE@Base 0.7.90
 _ZThn112_N23QWaylandKeyboardPrivate22keyboard_bind_resourceEPN15QtWaylandServer11wl_keyboard8ResourceE@Base 0.7.90
 _ZThn112_N23QWaylandKeyboardPrivate25keyboard_destroy_resourceEPN15QtWaylandServer11wl_keyboard8ResourceE@Base 0.7.90
 _ZThn112_N23QWaylandKeyboardPrivateD0Ev@Base 0.7.90
 _ZThn112_N23QWaylandKeyboardPrivateD1Ev@Base 0.7.90
 _ZThn112_N25QWaylandCompositorPrivate24compositor_create_regionEPN15QtWaylandServer13wl_compositor8ResourceEj@Base 0.7.90
 _ZThn112_N25QWaylandCompositorPrivate25compositor_create_surfaceEPN15QtWaylandServer13wl_compositor8ResourceEj@Base 0.7.90
 _ZThn112_N25QWaylandCompositorPrivateD0Ev@Base 0.7.90
 _ZThn112_N25QWaylandCompositorPrivateD1Ev@Base 0.7.90
 _ZThn112_N26QWaylandInputDevicePrivate14seat_get_touchEPN15QtWaylandServer7wl_seat8ResourceEj@Base 0.7.90
 _ZThn112_N26QWaylandInputDevicePrivate16seat_get_pointerEPN15QtWaylandServer7wl_seat8ResourceEj@Base 0.7.90
 _ZThn112_N26QWaylandInputDevicePrivate17seat_get_keyboardEPN15QtWaylandServer7wl_seat8ResourceEj@Base 0.7.90
 _ZThn112_N26QWaylandInputDevicePrivate18seat_bind_resourceEPN15QtWaylandServer7wl_seat8ResourceE@Base 0.7.90
 _ZThn112_N26QWaylandInputDevicePrivate21seat_destroy_resourceEPN15QtWaylandServer7wl_seat8ResourceE@Base 0.7.90
 _ZThn112_N26QWaylandInputDevicePrivateD0Ev@Base 0.7.90
 _ZThn112_N26QWaylandInputDevicePrivateD1Ev@Base 0.7.90
 _ZThn128_N20QWaylandShellPrivate23shell_get_shell_surfaceEPN15QtWaylandServer8wl_shell8ResourceEjP11wl_resource@Base 0.7.90
 _ZThn128_N25QWaylandInputPanelPrivate35input_panel_get_input_panel_surfaceEPN15QtWaylandServer14wl_input_panel8ResourceEjP11wl_resource@Base 0.7.90
 _ZThn128_N25QWaylandInputPanelPrivateD0Ev@Base 0.7.90
 _ZThn128_N25QWaylandInputPanelPrivateD1Ev@Base 0.7.90
 _ZThn128_N27QWaylandShellSurfacePrivate18shell_surface_moveEPN15QtWaylandServer16wl_shell_surface8ResourceEP11wl_resourcej@Base 0.7.90
 _ZThn128_N27QWaylandShellSurfacePrivate18shell_surface_pongEPN15QtWaylandServer16wl_shell_surface8ResourceEj@Base 0.7.90
 _ZThn128_N27QWaylandShellSurfacePrivate20shell_surface_resizeEPN15QtWaylandServer16wl_shell_surface8ResourceEP11wl_resourcejj@Base 0.7.90
 _ZThn128_N27QWaylandShellSurfacePrivate23shell_surface_set_classEPN15QtWaylandServer16wl_shell_surface8ResourceERK7QString@Base 0.7.90
 _ZThn128_N27QWaylandShellSurfacePrivate23shell_surface_set_popupEPN15QtWaylandServer16wl_shell_surface8ResourceEP11wl_resourcejS5_iij@Base 0.7.90
 _ZThn128_N27QWaylandShellSurfacePrivate23shell_surface_set_titleEPN15QtWaylandServer16wl_shell_surface8ResourceERK7QString@Base 0.7.90
 _ZThn128_N27QWaylandShellSurfacePrivate26shell_surface_set_toplevelEPN15QtWaylandServer16wl_shell_surface8ResourceE@Base 0.7.90
 _ZThn128_N27QWaylandShellSurfacePrivate27shell_surface_set_maximizedEPN15QtWaylandServer16wl_shell_surface8ResourceEP11wl_resource@Base 0.7.90
 _ZThn128_N27QWaylandShellSurfacePrivate27shell_surface_set_transientEPN15QtWaylandServer16wl_shell_surface8ResourceEP11wl_resourceiij@Base 0.7.90
 _ZThn128_N27QWaylandShellSurfacePrivate28shell_surface_set_fullscreenEPN15QtWaylandServer16wl_shell_surface8ResourceEjjP11wl_resource@Base 0.7.90
 _ZThn128_N27QWaylandShellSurfacePrivate30shell_surface_destroy_resourceEPN15QtWaylandServer16wl_shell_surface8ResourceE@Base 0.7.90
 _ZThn128_N27QWaylandShellSurfacePrivateD0Ev@Base 0.7.90
 _ZThn128_N27QWaylandShellSurfacePrivateD1Ev@Base 0.7.90
 _ZThn128_N37QWaylandWindowManagerExtensionPrivate22windowmanager_open_urlEPN15QtWaylandServer16qt_windowmanager8ResourceEjRK7QString@Base 0.7.90
 _ZThn128_N37QWaylandWindowManagerExtensionPrivate27windowmanager_bind_resourceEPN15QtWaylandServer16qt_windowmanager8ResourceE@Base 0.7.90
 _ZThn128_N37QWaylandWindowManagerExtensionPrivate30windowmanager_destroy_resourceEPN15QtWaylandServer16qt_windowmanager8ResourceE@Base 0.7.90
 _ZThn152_N25QWaylandCompositorPrivate28subcompositor_get_subsurfaceEPN15QtWaylandServer16wl_subcompositor8ResourceEjP11wl_resourceS5_@Base 0.7.90
 _ZThn152_N25QWaylandCompositorPrivateD0Ev@Base 0.7.90
 _ZThn152_N25QWaylandCompositorPrivateD1Ev@Base 0.7.90
 _ZThn16_N17QWaylandQuickItemD0Ev@Base 0.7.90
 _ZThn16_N17QWaylandQuickItemD1Ev@Base 0.7.90
 _ZThn16_N29QWaylandQuickShellSurfaceItem17componentCompleteEv@Base 0.7.90
 _ZThn24_N23QWaylandQuickCompositor10classBeginEv@Base 0.7.90
 _ZThn24_N23QWaylandQuickCompositor17componentCompleteEv@Base 0.7.90
 _ZThn24_N9QtWayland15ExtendedSurface22extended_surface_lowerEPN15QtWaylandServer19qt_extended_surface8ResourceE@Base 0.7.90
 _ZThn24_N9QtWayland15ExtendedSurface22extended_surface_raiseEPN15QtWaylandServer19qt_extended_surface8ResourceE@Base 0.7.90
 _ZThn24_N9QtWayland15ExtendedSurface33extended_surface_destroy_resourceEPN15QtWaylandServer19qt_extended_surface8ResourceE@Base 0.7.90
 _ZThn24_N9QtWayland15ExtendedSurface33extended_surface_set_window_flagsEPN15QtWaylandServer19qt_extended_surface8ResourceEi@Base 0.7.90
 _ZThn24_N9QtWayland15ExtendedSurface40extended_surface_update_generic_propertyEPN15QtWaylandServer19qt_extended_surface8ResourceERK7QStringP8wl_array@Base 0.7.90
 _ZThn24_N9QtWayland15ExtendedSurface45extended_surface_set_content_orientation_maskEPN15QtWaylandServer19qt_extended_surface8ResourceEi@Base 0.7.90
 _ZThn24_N9QtWayland15ExtendedSurfaceD0Ev@Base 0.7.90
 _ZThn24_N9QtWayland15ExtendedSurfaceD1Ev@Base 0.7.90
 _ZThn24_N9QtWayland22SurfaceExtensionGlobal38surface_extension_get_extended_surfaceEPN15QtWaylandServer20qt_surface_extension8ResourceEjP11wl_resource@Base 0.7.90
 qt_extended_surface_interface@Base 0.7.90
 qt_hardware_integration_interface@Base 0.7.90
 qt_key_extension_interface@Base 0.7.90
 qt_surface_extension_interface@Base 0.7.90
 qt_touch_extension_interface@Base 0.7.90
 qt_windowmanager_interface@Base 0.7.90
 wl_buffer_interface@Base 0.7.90
 wl_callback_interface@Base 0.7.90
 wl_compositor_interface@Base 0.7.90
 wl_data_device_interface@Base 0.7.90
 wl_data_device_manager_interface@Base 0.7.90
 wl_data_offer_interface@Base 0.7.90
 wl_data_source_interface@Base 0.7.90
 wl_display_interface@Base 0.7.90
 wl_input_method_context_interface@Base 0.7.90
 wl_input_method_interface@Base 0.7.90
 wl_input_panel_interface@Base 0.7.90
 wl_input_panel_surface_interface@Base 0.7.90
 wl_keyboard_interface@Base 0.7.90
 wl_output_interface@Base 0.7.90
 wl_pointer_interface@Base 0.7.90
 wl_region_interface@Base 0.7.90
 wl_registry_interface@Base 0.7.90
 wl_seat_interface@Base 0.7.90
 wl_shell_interface@Base 0.7.90
 wl_shell_surface_interface@Base 0.7.90
 wl_shm_interface@Base 0.7.90
 wl_shm_pool_interface@Base 0.7.90
 wl_subcompositor_interface@Base 0.7.90
 wl_subsurface_interface@Base 0.7.90
 wl_surface_interface@Base 0.7.90
 wl_text_input_interface@Base 0.7.90
 wl_text_input_manager_interface@Base 0.7.90
 wl_touch_interface@Base 0.7.90
